Archive member included because of file (symbol)

C:\Users\Mihtop\Desktop\ECS\ECS\ide\..\hxdsp1042\newlib/libc_c.a(printf.o)
                              ./init.o (__printf)
C:\Users\Mihtop\Desktop\ECS\ECS\ide\..\hxdsp1042\newlib/libc_c.a(clock.o)
                              ./init.o (__clock)
C:\Users\Mihtop\Desktop\ECS\ECS\ide\..\hxdsp1042\newlib/libc_c.a(int_div_precision.o)
                              ./init.o (__int_div_precision)
C:\Users\Mihtop\Desktop\ECS\ECS\ide\..\hxdsp1042\newlib/libc_c.a(vfprintf.o)
                              C:\Users\Mihtop\Desktop\ECS\ECS\ide\..\hxdsp1042\newlib/libc_c.a(printf.o) (___vfprintf_r)
C:\Users\Mihtop\Desktop\ECS\ECS\ide\..\hxdsp1042\newlib/libc_c.a(impure.o)
                              C:\Users\Mihtop\Desktop\ECS\ECS\ide\..\hxdsp1042\newlib/libc_c.a(printf.o) (___impure_ptr)
C:\Users\Mihtop\Desktop\ECS\ECS\ide\..\hxdsp1042\newlib/libc_c.a(fflush.o)
                              C:\Users\Mihtop\Desktop\ECS\ECS\ide\..\hxdsp1042\newlib/libc_c.a(vfprintf.o) (___fflush_r)
C:\Users\Mihtop\Desktop\ECS\ECS\ide\..\hxdsp1042\newlib/libc_c.a(locale.o)
                              C:\Users\Mihtop\Desktop\ECS\ECS\ide\..\hxdsp1042\newlib/libc_c.a(vfprintf.o) (___localeconv_r)
C:\Users\Mihtop\Desktop\ECS\ECS\ide\..\hxdsp1042\newlib/libc_c.a(strlen.o)
                              C:\Users\Mihtop\Desktop\ECS\ECS\ide\..\hxdsp1042\newlib/libc_c.a(vfprintf.o) (__strlen)
C:\Users\Mihtop\Desktop\ECS\ECS\ide\..\hxdsp1042\newlib/libc_c.a(findfp.o)
                              C:\Users\Mihtop\Desktop\ECS\ECS\ide\..\hxdsp1042\newlib/libc_c.a(vfprintf.o) (____sinit)
C:\Users\Mihtop\Desktop\ECS\ECS\ide\..\hxdsp1042\newlib/libc_c.a(wsetup.o)
                              C:\Users\Mihtop\Desktop\ECS\ECS\ide\..\hxdsp1042\newlib/libc_c.a(vfprintf.o) (____swsetup_r)
C:\Users\Mihtop\Desktop\ECS\ECS\ide\..\hxdsp1042\newlib/libc_c.a(vfiprintf.o)
                              C:\Users\Mihtop\Desktop\ECS\ECS\ide\..\hxdsp1042\newlib/libc_c.a(vfprintf.o) (____sprint_r)
C:\Users\Mihtop\Desktop\ECS\ECS\ide\..\hxdsp1042\newlib/libc_c.a(memchr.o)
                              C:\Users\Mihtop\Desktop\ECS\ECS\ide\..\hxdsp1042\newlib/libc_c.a(vfprintf.o) (__memchr)
C:\Users\Mihtop\Desktop\ECS\ECS\ide\..\hxdsp1042\newlib/libc_c.a(uint_div_precision.o)
                              C:\Users\Mihtop\Desktop\ECS\ECS\ide\..\hxdsp1042\newlib/libc_c.a(vfprintf.o) (__uint_div_precision)
C:\Users\Mihtop\Desktop\ECS\ECS\ide\..\hxdsp1042\newlib/libc_c.a(dtoa.o)
                              C:\Users\Mihtop\Desktop\ECS\ECS\ide\..\hxdsp1042\newlib/libc_c.a(vfprintf.o) (___dtoa_r)
C:\Users\Mihtop\Desktop\ECS\ECS\ide\..\hxdsp1042\newlib/libc_c.a(fwalk.o)
                              C:\Users\Mihtop\Desktop\ECS\ECS\ide\..\hxdsp1042\newlib/libc_c.a(findfp.o) (___fwalk)
C:\Users\Mihtop\Desktop\ECS\ECS\ide\..\hxdsp1042\newlib/libc_c.a(strcmp.o)
                              C:\Users\Mihtop\Desktop\ECS\ECS\ide\..\hxdsp1042\newlib/libc_c.a(locale.o) (__strcmp)
C:\Users\Mihtop\Desktop\ECS\ECS\ide\..\hxdsp1042\newlib/libc_c.a(memset.o)
                              C:\Users\Mihtop\Desktop\ECS\ECS\ide\..\hxdsp1042\newlib/libc_c.a(findfp.o) (__memset)
C:\Users\Mihtop\Desktop\ECS\ECS\ide\..\hxdsp1042\newlib/libc_c.a(stdio.o)
                              C:\Users\Mihtop\Desktop\ECS\ECS\ide\..\hxdsp1042\newlib/libc_c.a(findfp.o) (____sread)
C:\Users\Mihtop\Desktop\ECS\ECS\ide\..\hxdsp1042\newlib/libc_c.a(fclose.o)
                              C:\Users\Mihtop\Desktop\ECS\ECS\ide\..\hxdsp1042\newlib/libc_c.a(findfp.o) (__fclose)
C:\Users\Mihtop\Desktop\ECS\ECS\ide\..\hxdsp1042\newlib/libc_c.a(makebuf.o)
                              C:\Users\Mihtop\Desktop\ECS\ECS\ide\..\hxdsp1042\newlib/libc_c.a(wsetup.o) (____smakebuf_r)
C:\Users\Mihtop\Desktop\ECS\ECS\ide\..\hxdsp1042\newlib/libc_c.a(fputwc.o)
                              C:\Users\Mihtop\Desktop\ECS\ECS\ide\..\hxdsp1042\newlib/libc_c.a(vfiprintf.o) (___fputwc_r)
C:\Users\Mihtop\Desktop\ECS\ECS\ide\..\hxdsp1042\newlib/libc_c.a(fvwrite.o)
                              C:\Users\Mihtop\Desktop\ECS\ECS\ide\..\hxdsp1042\newlib/libc_c.a(vfiprintf.o) (____sfvwrite_r)
C:\Users\Mihtop\Desktop\ECS\ECS\ide\..\hxdsp1042\newlib/libc_c.a(mprec.o)
                              C:\Users\Mihtop\Desktop\ECS\ECS\ide\..\hxdsp1042\newlib/libc_c.a(dtoa.o) (____mprec_tens)
C:\Users\Mihtop\Desktop\ECS\ECS\ide\..\hxdsp1042\newlib/libc_c.a(memcpy.o)
                              C:\Users\Mihtop\Desktop\ECS\ECS\ide\..\hxdsp1042\newlib/libc_c.a(dtoa.o) (__memcpy)
C:\Users\Mihtop\Desktop\ECS\ECS\ide\..\hxdsp1042\newlib/libc_c.a(wcrtomb.o)
                              C:\Users\Mihtop\Desktop\ECS\ECS\ide\..\hxdsp1042\newlib/libc_c.a(fputwc.o) (___wcrtomb_r)
C:\Users\Mihtop\Desktop\ECS\ECS\ide\..\hxdsp1042\newlib/libc_c.a(wbuf.o)
                              C:\Users\Mihtop\Desktop\ECS\ECS\ide\..\hxdsp1042\newlib/libc_c.a(fputwc.o) (____swbuf_r)
C:\Users\Mihtop\Desktop\ECS\ECS\ide\..\hxdsp1042\newlib/libc_c.a(memmove.o)
                              C:\Users\Mihtop\Desktop\ECS\ECS\ide\..\hxdsp1042\newlib/libc_c.a(fvwrite.o) (__memmove)
C:\Users\Mihtop\Desktop\ECS\ECS\ide\..\hxdsp1042\newlib/libc_c.a(wctomb_r.o)
                              C:\Users\Mihtop\Desktop\ECS\ECS\ide\..\hxdsp1042\newlib/libc_c.a(wcrtomb.o) (____wctomb)
C:\Users\Mihtop\Desktop\ECS\ECS\ide\..\hxdsp1042\newlib/libm_c.a(sf_fabs.o)
                              ./init.o (__fabs)
C:\Users\Mihtop\Desktop\ECS\ECS\ide\..\hxdsp1042\newlib/libm_c.a(sf_fpclassify.o)
                              C:\Users\Mihtop\Desktop\ECS\ECS\ide\..\hxdsp1042\newlib/libc_c.a(vfprintf.o) (____fpclassifyf)
C:\Users\Mihtop\Desktop\ECS\ECS\ide\..\hxdsp1042\epos/libepos_c.a(_finit.o)
                              C:\Users\Mihtop\Desktop\ECS\ECS\ide\\..\hxdsp1042\newlib\crt0_c.o (___finit)
C:\Users\Mihtop\Desktop\ECS\ECS\ide\..\hxdsp1042\epos/libepos_c.a(main.o)
                              C:\Users\Mihtop\Desktop\ECS\ECS\ide\\..\hxdsp1042\newlib\crt0_c.o (__sysmain)
C:\Users\Mihtop\Desktop\ECS\ECS\ide\..\hxdsp1042\epos/libepos_c.a(unsupport_newlib.o)
                              C:\Users\Mihtop\Desktop\ECS\ECS\ide\..\hxdsp1042\newlib/libc_c.a(clock.o) (___times_r)
C:\Users\Mihtop\Desktop\ECS\ECS\ide\..\hxdsp1042\epos/libepos_c.a(_free_r.o)
                              C:\Users\Mihtop\Desktop\ECS\ECS\ide\..\hxdsp1042\newlib/libc_c.a(vfprintf.o) (___free_r)
C:\Users\Mihtop\Desktop\ECS\ECS\ide\..\hxdsp1042\epos/libepos_c.a(_malloc_r.o)
                              C:\Users\Mihtop\Desktop\ECS\ECS\ide\..\hxdsp1042\newlib/libc_c.a(findfp.o) (___malloc_r)
C:\Users\Mihtop\Desktop\ECS\ECS\ide\..\hxdsp1042\epos/libepos_c.a(read.o)
                              C:\Users\Mihtop\Desktop\ECS\ECS\ide\..\hxdsp1042\newlib/libc_c.a(stdio.o) (___read_r)
C:\Users\Mihtop\Desktop\ECS\ECS\ide\..\hxdsp1042\epos/libepos_c.a(lseek.o)
                              C:\Users\Mihtop\Desktop\ECS\ECS\ide\..\hxdsp1042\newlib/libc_c.a(stdio.o) (___lseek_r)
C:\Users\Mihtop\Desktop\ECS\ECS\ide\..\hxdsp1042\epos/libepos_c.a(write.o)
                              C:\Users\Mihtop\Desktop\ECS\ECS\ide\..\hxdsp1042\newlib/libc_c.a(stdio.o) (___write_r)
C:\Users\Mihtop\Desktop\ECS\ECS\ide\..\hxdsp1042\epos/libepos_c.a(close.o)
                              C:\Users\Mihtop\Desktop\ECS\ECS\ide\..\hxdsp1042\newlib/libc_c.a(stdio.o) (___close_r)
C:\Users\Mihtop\Desktop\ECS\ECS\ide\..\hxdsp1042\epos/libepos_c.a(fstat.o)
                              C:\Users\Mihtop\Desktop\ECS\ECS\ide\..\hxdsp1042\newlib/libc_c.a(makebuf.o) (___fstat_r)
C:\Users\Mihtop\Desktop\ECS\ECS\ide\..\hxdsp1042\epos/libepos_c.a(_isatty.o)
                              C:\Users\Mihtop\Desktop\ECS\ECS\ide\..\hxdsp1042\newlib/libc_c.a(makebuf.o) (___isatty_r)
C:\Users\Mihtop\Desktop\ECS\ECS\ide\..\hxdsp1042\epos/libepos_c.a(_realloc_r.o)
                              C:\Users\Mihtop\Desktop\ECS\ECS\ide\..\hxdsp1042\newlib/libc_c.a(fvwrite.o) (___realloc_r)
C:\Users\Mihtop\Desktop\ECS\ECS\ide\..\hxdsp1042\epos/libepos_c.a(_calloc_r.o)
                              C:\Users\Mihtop\Desktop\ECS\ECS\ide\..\hxdsp1042\newlib/libc_c.a(mprec.o) (___calloc_r)
C:\Users\Mihtop\Desktop\ECS\ECS\ide\..\hxdsp1042\epos/libepos_c.a(bootcard.o)
                              C:\Users\Mihtop\Desktop\ECS\ECS\ide\..\hxdsp1042\epos/libepos_c.a(main.o) (__bootcard)
C:\Users\Mihtop\Desktop\ECS\ECS\ide\..\hxdsp1042\epos/libepos_c.a(free.o)
                              C:\Users\Mihtop\Desktop\ECS\ECS\ide\..\hxdsp1042\epos/libepos_c.a(_free_r.o) (__free)
C:\Users\Mihtop\Desktop\ECS\ECS\ide\..\hxdsp1042\epos/libepos_c.a(malloc.o)
                              C:\Users\Mihtop\Desktop\ECS\ECS\ide\..\hxdsp1042\epos/libepos_c.a(_malloc_r.o) (__malloc)
C:\Users\Mihtop\Desktop\ECS\ECS\ide\..\hxdsp1042\epos/libepos_c.a(hostcomm.o)
                              C:\Users\Mihtop\Desktop\ECS\ECS\ide\..\hxdsp1042\epos/libepos_c.a(read.o) (___maxpacksz)
C:\Users\Mihtop\Desktop\ECS\ECS\ide\..\hxdsp1042\epos/libepos_c.a(ferror.o)
                              C:\Users\Mihtop\Desktop\ECS\ECS\ide\..\hxdsp1042\epos/libepos_c.a(read.o) (___ferror)
C:\Users\Mihtop\Desktop\ECS\ECS\ide\..\hxdsp1042\epos/libepos_c.a(_eof.o)
                              C:\Users\Mihtop\Desktop\ECS\ECS\ide\..\hxdsp1042\epos/libepos_c.a(read.o) (___eof)
C:\Users\Mihtop\Desktop\ECS\ECS\ide\..\hxdsp1042\epos/libepos_c.a(_tell.o)
                              C:\Users\Mihtop\Desktop\ECS\ECS\ide\..\hxdsp1042\epos/libepos_c.a(lseek.o) (___tell)
C:\Users\Mihtop\Desktop\ECS\ECS\ide\..\hxdsp1042\epos/libepos_c.a(_realloc.o)
                              C:\Users\Mihtop\Desktop\ECS\ECS\ide\..\hxdsp1042\epos/libepos_c.a(_realloc_r.o) (___realloc)
C:\Users\Mihtop\Desktop\ECS\ECS\ide\..\hxdsp1042\epos/libepos_c.a(_calloc.o)
                              C:\Users\Mihtop\Desktop\ECS\ECS\ide\..\hxdsp1042\epos/libepos_c.a(_calloc_r.o) (___calloc)
C:\Users\Mihtop\Desktop\ECS\ECS\ide\..\hxdsp1042\epos/libepos_c.a(bsplibc.o)
                              C:\Users\Mihtop\Desktop\ECS\ECS\ide\..\hxdsp1042\epos/libepos_c.a(bootcard.o) (__bsp_libc_init)
C:\Users\Mihtop\Desktop\ECS\ECS\ide\..\hxdsp1042\epos/libepos_c.a(cpu_asm.o)
                              C:\Users\Mihtop\Desktop\ECS\ECS\ide\..\hxdsp1042\epos/libepos_c.a(bootcard.o) (__bwdsp_disable_interrupt)
C:\Users\Mihtop\Desktop\ECS\ECS\ide\..\hxdsp1042\epos/libepos_c.a(bspgetworkarea.o)
                              C:\Users\Mihtop\Desktop\ECS\ECS\ide\..\hxdsp1042\epos/libepos_c.a(bootcard.o) (__bsp_get_work_area)
C:\Users\Mihtop\Desktop\ECS\ECS\ide\..\hxdsp1042\epos/libepos_c.a(bspclean.o)
                              C:\Users\Mihtop\Desktop\ECS\ECS\ide\..\hxdsp1042\epos/libepos_c.a(bootcard.o) (__bsp_cleanup)
C:\Users\Mihtop\Desktop\ECS\ECS\ide\..\hxdsp1042\epos/libepos_c.a(exinit.o)
                              C:\Users\Mihtop\Desktop\ECS\ECS\ide\..\hxdsp1042\epos/libepos_c.a(_realloc.o) (___ISR_Nest_level)
C:\Users\Mihtop\Desktop\ECS\ECS\ide\..\hxdsp1042\epos/libepos_c.a(bsppretaskinghook.o)
                              C:\Users\Mihtop\Desktop\ECS\ECS\ide\..\hxdsp1042\epos/libepos_c.a(bootcard.o) (__bsp_pretasking_hook)
C:\Users\Mihtop\Desktop\ECS\ECS\ide\..\hxdsp1042\epos/libepos_c.a(bsppredriverhook.o)
                              C:\Users\Mihtop\Desktop\ECS\ECS\ide\..\hxdsp1042\epos/libepos_c.a(bootcard.o) (__bsp_predriver_hook)
C:\Users\Mihtop\Desktop\ECS\ECS\ide\..\hxdsp1042\epos/libepos_c.a(bsppost.o)
                              C:\Users\Mihtop\Desktop\ECS\ECS\ide\..\hxdsp1042\epos/libepos_c.a(bootcard.o) (__bsp_postdriver_hook)
C:\Users\Mihtop\Desktop\ECS\ECS\ide\..\hxdsp1042\epos/libepos_c.a(sysstate_inl.o)
                              C:\Users\Mihtop\Desktop\ECS\ECS\ide\..\hxdsp1042\epos/libepos_c.a(bootcard.o) (___System_state_Set)
C:\Users\Mihtop\Desktop\ECS\ECS\ide\..\hxdsp1042\epos/libepos_c.a(malloc_deferred.o)
                              C:\Users\Mihtop\Desktop\ECS\ECS\ide\..\hxdsp1042\epos/libepos_c.a(free.o) (__malloc_is_system_state_OK)
C:\Users\Mihtop\Desktop\ECS\ECS\ide\..\hxdsp1042\epos/libepos_c.a(pheapfree.o)
                              C:\Users\Mihtop\Desktop\ECS\ECS\ide\..\hxdsp1042\epos/libepos_c.a(free.o) (___Protected_heap_Free)
C:\Users\Mihtop\Desktop\ECS\ECS\ide\..\hxdsp1042\epos/libepos_c.a(malloc_initialize.o)
                              C:\Users\Mihtop\Desktop\ECS\ECS\ide\..\hxdsp1042\epos/libepos_c.a(free.o) (__epos_malloc_statistics)
C:\Users\Mihtop\Desktop\ECS\ECS\ide\..\hxdsp1042\epos/libepos_c.a(protectedheap_inl.o)
                              C:\Users\Mihtop\Desktop\ECS\ECS\ide\..\hxdsp1042\epos/libepos_c.a(malloc_initialize.o) (___Protected_heap_Initialize)
C:\Users\Mihtop\Desktop\ECS\ECS\ide\..\hxdsp1042\epos/libepos_c.a(pheapgetblocksize.o)
                              C:\Users\Mihtop\Desktop\ECS\ECS\ide\..\hxdsp1042\epos/libepos_c.a(_realloc.o) (___Protected_heap_Get_block_size)
C:\Users\Mihtop\Desktop\ECS\ECS\ide\..\hxdsp1042\epos/libepos_c.a(pheapresizeblock.o)
                              C:\Users\Mihtop\Desktop\ECS\ECS\ide\..\hxdsp1042\epos/libepos_c.a(_realloc.o) (___Protected_heap_Resize_block)
C:\Users\Mihtop\Desktop\ECS\ECS\ide\..\hxdsp1042\epos/libepos_c.a(wkspace.o)
                              C:\Users\Mihtop\Desktop\ECS\ECS\ide\..\hxdsp1042\epos/libepos_c.a(exinit.o) (___Workspace_Handler_initialization)
C:\Users\Mihtop\Desktop\ECS\ECS\ide\..\hxdsp1042\epos/libepos_c.a(isr.o)
                              C:\Users\Mihtop\Desktop\ECS\ECS\ide\..\hxdsp1042\epos/libepos_c.a(exinit.o) (___ISR_Handler_initialization)
C:\Users\Mihtop\Desktop\ECS\ECS\ide\..\hxdsp1042\epos/libepos_c.a(ckinit.o)
                              C:\Users\Mihtop\Desktop\ECS\ECS\ide\..\hxdsp1042\epos/libepos_c.a(exinit.o) (__Clock_initialize)
C:\Users\Mihtop\Desktop\ECS\ECS\ide\..\hxdsp1042\epos/libepos_c.a(corechain_inl.o)
                              C:\Users\Mihtop\Desktop\ECS\ECS\ide\..\hxdsp1042\epos/libepos_c.a(malloc_deferred.o) (__epos_chain_initialize_empty)
C:\Users\Mihtop\Desktop\ECS\ECS\ide\..\hxdsp1042\epos/libepos_c.a(heapfree.o)
                              C:\Users\Mihtop\Desktop\ECS\ECS\ide\..\hxdsp1042\epos/libepos_c.a(pheapfree.o) (___Heap_Free)
C:\Users\Mihtop\Desktop\ECS\ECS\ide\..\hxdsp1042\epos/libepos_c.a(fatal.o)
                              C:\Users\Mihtop\Desktop\ECS\ECS\ide\..\hxdsp1042\epos/libepos_c.a(malloc_initialize.o) (__epos_fatal_error_occurred)
C:\Users\Mihtop\Desktop\ECS\ECS\ide\..\hxdsp1042\epos/libepos_c.a(pheapgetsize.o)
                              C:\Users\Mihtop\Desktop\ECS\ECS\ide\..\hxdsp1042\epos/libepos_c.a(malloc_initialize.o) (___Protected_heap_Get_size)
C:\Users\Mihtop\Desktop\ECS\ECS\ide\..\hxdsp1042\epos/libepos_c.a(heap.o)
                              C:\Users\Mihtop\Desktop\ECS\ECS\ide\..\hxdsp1042\epos/libepos_c.a(protectedheap_inl.o) (___Heap_Initialize)
C:\Users\Mihtop\Desktop\ECS\ECS\ide\..\hxdsp1042\epos/libepos_c.a(pheapallocate.o)
                              C:\Users\Mihtop\Desktop\ECS\ECS\ide\..\hxdsp1042\epos/libepos_c.a(protectedheap_inl.o) (___Protected_heap_Allocate_aligned_with_boundary)
C:\Users\Mihtop\Desktop\ECS\ECS\ide\..\hxdsp1042\epos/libepos_c.a(heapsizeofuserarea.o)
                              C:\Users\Mihtop\Desktop\ECS\ECS\ide\..\hxdsp1042\epos/libepos_c.a(pheapgetblocksize.o) (___Heap_Size_of_alloc_area)
C:\Users\Mihtop\Desktop\ECS\ECS\ide\..\hxdsp1042\epos/libepos_c.a(heapresizeblock.o)
                              C:\Users\Mihtop\Desktop\ECS\ECS\ide\..\hxdsp1042\epos/libepos_c.a(pheapresizeblock.o) (___Heap_Resize_block)
C:\Users\Mihtop\Desktop\ECS\ECS\ide\..\hxdsp1042\epos/libepos_c.a(interr.o)
                              C:\Users\Mihtop\Desktop\ECS\ECS\ide\..\hxdsp1042\epos/libepos_c.a(wkspace.o) (___Internal_error_Occurred)
C:\Users\Mihtop\Desktop\ECS\ECS\ide\..\hxdsp1042\epos/libepos_c.a(heap_inl.o)
                              C:\Users\Mihtop\Desktop\ECS\ECS\ide\..\hxdsp1042\epos/libepos_c.a(wkspace.o) (___Heap_Allocate)
C:\Users\Mihtop\Desktop\ECS\ECS\ide\..\hxdsp1042\epos/libepos_c.a(interruptc.o)
                              C:\Users\Mihtop\Desktop\ECS\ECS\ide\..\hxdsp1042\epos/libepos_c.a(ckinit.o) (__isr_installc_dsp)
C:\Users\Mihtop\Desktop\ECS\ECS\ide\..\hxdsp1042\epos/libepos_c.a(intrdsp.o)
                              C:\Users\Mihtop\Desktop\ECS\ECS\ide\..\hxdsp1042\epos/libepos_c.a(ckinit.o) (__dsp_intrseteventmap)
C:\Users\Mihtop\Desktop\ECS\ECS\ide\..\hxdsp1042\epos/libepos_c.a(clock.o)
                              C:\Users\Mihtop\Desktop\ECS\ECS\ide\..\hxdsp1042\epos/libepos_c.a(ckinit.o) (__init_timer0_int)
C:\Users\Mihtop\Desktop\ECS\ECS\ide\..\hxdsp1042\epos/libepos_c.a(chaininsert.o)
                              C:\Users\Mihtop\Desktop\ECS\ECS\ide\..\hxdsp1042\epos/libepos_c.a(corechain_inl.o) (___Chain_Insert)
C:\Users\Mihtop\Desktop\ECS\ECS\ide\..\hxdsp1042\epos/libepos_c.a(chainappend.o)
                              C:\Users\Mihtop\Desktop\ECS\ECS\ide\..\hxdsp1042\epos/libepos_c.a(corechain_inl.o) (___Chain_Append)
C:\Users\Mihtop\Desktop\ECS\ECS\ide\..\hxdsp1042\epos/libepos_c.a(chainget.o)
                              C:\Users\Mihtop\Desktop\ECS\ECS\ide\..\hxdsp1042\epos/libepos_c.a(corechain_inl.o) (___Chain_Get)
C:\Users\Mihtop\Desktop\ECS\ECS\ide\..\hxdsp1042\epos/libepos_c.a(heapallocate.o)
                              C:\Users\Mihtop\Desktop\ECS\ECS\ide\..\hxdsp1042\epos/libepos_c.a(pheapallocate.o) (___Heap_Allocate_aligned_with_boundary)
C:\Users\Mihtop\Desktop\ECS\ECS\ide\..\hxdsp1042\epos/libepos_c.a(_interruptc.o)
                              C:\Users\Mihtop\Desktop\ECS\ECS\ide\..\hxdsp1042\epos/libepos_c.a(interruptc.o) (_interruptc_process)
C:\Users\Mihtop\Desktop\ECS\ECS\ide\..\hxdsp1042\epos/libepos_c.a(_interrupt.o)
                              C:\Users\Mihtop\Desktop\ECS\ECS\ide\..\hxdsp1042\epos/libepos_c.a(interruptc.o) (___interrupt_table)
C:\Users\Mihtop\Desktop\ECS\ECS\ide\..\hxdsp1042\epos/libepos_c.a(start_interrupt.o)
                              C:\Users\Mihtop\Desktop\ECS\ECS\ide\..\hxdsp1042\epos/libepos_c.a(interruptc.o) (_conn_sys_isr)
C:\Users\Mihtop\Desktop\ECS\ECS\ide\..\hxdsp1042\epos/libepos_c.a(_intscr.o)
                              C:\Users\Mihtop\Desktop\ECS\ECS\ide\..\hxdsp1042\epos/libepos_c.a(intrdsp.o) (__getintscr)
C:\Users\Mihtop\Desktop\ECS\ECS\ide\..\hxdsp1042\newlib/libc_c.a(errno.o)
                              C:\Users\Mihtop\Desktop\ECS\ECS\ide\..\hxdsp1042\epos/libepos_c.a(read.o) (____errno)

Memory Configuration

Name             Origin             Length             Attributes
SHARED_PROG      0x00000000         0x00018000         xr
LOCAL_SRAM       0x00e20000         0x00010000         xr
ENP_SEC          0x00200000         0x00000400         rw
DATA0_LIB        0x00200400         0x00008000         rw
DATA0_APP        0x00208400         0x00037c00         rw
DATA1_WK         0x00400000         0x00008000         rw
DATA1_INITSTACK  0x00408000         0x00010000         rw
DATA1_APP        0x00418000         0x00028000         rw
DATA2_HAEP       0x00600000         0x0000c000         rw
DATA2_APP        0x0060c000         0x00034000         rw
DATA3            0x00800000         0x00040000         rw
DATA4            0x00a00000         0x00040000         rw
DATA5            0x00c00000         0x0003fffe         rw
DEBUG_INFO       0x00000000         0x01900000
DEBUG_ARANGES    0x00000000         0x01900000
DEBUG_PUBNAMES   0x00000000         0x01900000
DEBUG_LINE       0x00000000         0x01900000
DEBUG_ABBREV     0x00000000         0x01900000
DEBUG_STR        0x00000000         0x01900000
*default*        0x00000000         0xffffffff

Linker script and memory map

LOAD C:\Users\Mihtop\Desktop\ECS\ECS\ide\\..\hxdsp1042\newlib\crt0_c.o
LOAD ./bw_cvabs_f.o
LOAD ./bw_cvfft_f.o
LOAD ./bw_cvifft_f.o
LOAD ./complex_multi.o
LOAD ./div_func.o
LOAD ./get_coreid.o
LOAD ./init.o
LOAD ./bsp/bspstart.o
START GROUP
LOAD C:\Users\Mihtop\Desktop\ECS\ECS\ide\..\hxdsp1042\newlib/libc_c.a
LOAD C:\Users\Mihtop\Desktop\ECS\ECS\ide\..\hxdsp1042\newlib/libm_c.a
LOAD C:\Users\Mihtop\Desktop\ECS\ECS\ide\..\hxdsp1042\epos/libepos_c.a
END GROUP

.lib_text       0x00000000    0x26b90
 *(.ostext)
 .ostext        0x00000000      0x2d0 C:\Users\Mihtop\Desktop\ECS\ECS\ide\\..\hxdsp1042\newlib\crt0_c.o
                0x00000084                __exit_loop
                0x00000000                _entry_point
 .ostext        0x000000b4      0x1a0 C:\Users\Mihtop\Desktop\ECS\ECS\ide\..\hxdsp1042\newlib/libc_c.a(printf.o)
                0x000000e4                __printf
                0x000000b4                ___printf_r
 .ostext        0x0000011c       0xf0 C:\Users\Mihtop\Desktop\ECS\ECS\ide\..\hxdsp1042\newlib/libc_c.a(clock.o)
                0x0000011c                __clock
 .ostext        0x00000158      0x150 C:\Users\Mihtop\Desktop\ECS\ECS\ide\..\hxdsp1042\newlib/libc_c.a(int_div_precision.o)
                0x00000158                __int_div_precision
 .ostext        0x000001ac     0x6730 C:\Users\Mihtop\Desktop\ECS\ECS\ide\..\hxdsp1042\newlib/libc_c.a(vfprintf.o)
                0x0000025c                __vfprintf
                0x00000290                ___vfprintf_r
 .ostext        0x00001b78      0xd10 C:\Users\Mihtop\Desktop\ECS\ECS\ide\..\hxdsp1042\newlib/libc_c.a(fflush.o)
                0x00001b78                ____sflush_r
                0x00001e74                __fflush
                0x00001e20                ___fflush_r
 .ostext        0x00001ebc      0x4c0 C:\Users\Mihtop\Desktop\ECS\ECS\ide\..\hxdsp1042\newlib/libc_c.a(locale.o)
                0x00001f48                ____locale_msgcharset
                0x00001ebc                ___setlocale_r
                0x00001fc4                __localeconv
                0x00001f94                __setlocale
                0x00001f30                ____locale_mb_cur_max
                0x00001f18                ____locale_charset
                0x00001f78                ___localeconv_r
                0x00001f60                ____locale_cjk_lang
 .ostext        0x00001fec      0x110 C:\Users\Mihtop\Desktop\ECS\ECS\ide\..\hxdsp1042\newlib/libc_c.a(strlen.o)
                0x00001fec                __strlen
 .ostext        0x00002030      0xbb0 C:\Users\Mihtop\Desktop\ECS\ECS\ide\..\hxdsp1042\newlib/libc_c.a(findfp.o)
                0x00002298                ____sinit
                0x00002130                __(short, float,  *)
                0x00002258                ___cleanup_r
                0x000020c4                ____sfmoreglue
                0x00002278                ___cleanup
 .ostext        0x0000231c      0x5d0 C:\Users\Mihtop\Desktop\ECS\ECS\ide\..\hxdsp1042\newlib/libc_c.a(wsetup.o)
                0x0000231c                ____swsetup_r
 .ostext        0x00002490     0x37a0 C:\Users\Mihtop\Desktop\ECS\ECS\ide\..\hxdsp1042\newlib/libc_c.a(vfiprintf.o)
                0x00002490                ____sprint_r
                0x00002664                ___vfiprintf_r
                0x00002630                __vfiprintf
 .ostext        0x00003278      0x170 C:\Users\Mihtop\Desktop\ECS\ECS\ide\..\hxdsp1042\newlib/libc_c.a(memchr.o)
                0x00003278                __memchr
 .ostext        0x000032d4       0xd0 C:\Users\Mihtop\Desktop\ECS\ECS\ide\..\hxdsp1042\newlib/libc_c.a(uint_div_precision.o)
                0x000032d4                __uint_div_precision
 .ostext        0x00003308     0x4220 C:\Users\Mihtop\Desktop\ECS\ECS\ide\..\hxdsp1042\newlib/libc_c.a(dtoa.o)
                0x00003594                ___dtoa_r
 .ostext        0x00004390      0x5f0 C:\Users\Mihtop\Desktop\ECS\ECS\ide\..\hxdsp1042\newlib/libc_c.a(fwalk.o)
                0x0000444c                ___fwalk_reent
                0x00004390                ___fwalk
 .ostext        0x0000450c      0x160 C:\Users\Mihtop\Desktop\ECS\ECS\ide\..\hxdsp1042\newlib/libc_c.a(strcmp.o)
                0x0000450c                __strcmp
 .ostext        0x00004564      0x130 C:\Users\Mihtop\Desktop\ECS\ECS\ide\..\hxdsp1042\newlib/libc_c.a(memset.o)
                0x00004564                __memset
 .ostext        0x000045b0      0x600 C:\Users\Mihtop\Desktop\ECS\ECS\ide\..\hxdsp1042\newlib/libc_c.a(stdio.o)
                0x00004638                ____swrite
                0x0000469c                ____sseek
                0x00004614                ____seofread
                0x000045b0                ____sread
                0x00004700                ____sclose
 .ostext        0x00004730      0x480 C:\Users\Mihtop\Desktop\ECS\ECS\ide\..\hxdsp1042\newlib/libc_c.a(fclose.o)
                0x00004828                __fclose
                0x00004730                ___fclose_r
 .ostext        0x00004850      0x660 C:\Users\Mihtop\Desktop\ECS\ECS\ide\..\hxdsp1042\newlib/libc_c.a(makebuf.o)
                0x00004850                ____smakebuf_r
 .ostext        0x000049e8      0x8b0 C:\Users\Mihtop\Desktop\ECS\ECS\ide\..\hxdsp1042\newlib/libc_c.a(fputwc.o)
                0x00004b64                ___fputwc_r
                0x00004bc8                __fputwc
 .ostext        0x00004c14     0x1540 C:\Users\Mihtop\Desktop\ECS\ECS\ide\..\hxdsp1042\newlib/libc_c.a(fvwrite.o)
                0x00004c14                ____sfvwrite_r
 .ostext        0x00005164     0x43d0 C:\Users\Mihtop\Desktop\ECS\ECS\ide\..\hxdsp1042\newlib/libc_c.a(mprec.o)
                0x00005228                ___Bfree
                0x000054f8                ____lo0bits
                0x00005164                ___Balloc
                0x00005df0                __(long,  *) __restrict
                0x00005c1c                ____mdiff
                0x00005274                ____multadd
                0x00006098                ___mprec_log10
                0x00005b5c                ____mcmp
                0x00005358                ____s2b
                0x00005e4c                ____b2d
                0x0000619c                ____any_on
                0x00006020                ____ratio
                0x000058c4                ____pow5mult
                0x000059dc                ____lshift
                0x00005620                ____multiply
                0x00005464                ____hi0bits
                0x000055e4                ____i2b
                0x000060e8                ____copybits
                0x00005f54                ____d2b
 .ostext        0x00006258      0x180 C:\Users\Mihtop\Desktop\ECS\ECS\ide\..\hxdsp1042\newlib/libc_c.a(memcpy.o)
                0x00006258                __memcpy
 .ostext        0x000062b8      0x320 C:\Users\Mihtop\Desktop\ECS\ECS\ide\..\hxdsp1042\newlib/libc_c.a(wcrtomb.o)
                0x0000634c                __wcrtomb
                0x000062b8                ___wcrtomb_r
 .ostext        0x00006380      0x5f0 C:\Users\Mihtop\Desktop\ECS\ECS\ide\..\hxdsp1042\newlib/libc_c.a(wbuf.o)
                0x00006380                ____swbuf_r
                0x000064d0                __(short, wchar_t, bool, float __restrict)
 .ostext        0x000064fc      0x300 C:\Users\Mihtop\Desktop\ECS\ECS\ide\..\hxdsp1042\newlib/libc_c.a(memmove.o)
                0x000064fc                __memmove
 .ostext        0x000065bc      0x250 C:\Users\Mihtop\Desktop\ECS\ECS\ide\..\hxdsp1042\newlib/libc_c.a(wctomb_r.o)
                0x00006600                ____ascii_wctomb
                0x000065bc                ___wctomb_r
 .ostext        0x00006650      0x130 C:\Users\Mihtop\Desktop\ECS\ECS\ide\..\hxdsp1042\newlib/libm_c.a(sf_fabs.o)
                0x0000667c                __fabs
                0x00006650                __fabsf
 .ostext        0x0000669c      0x250 C:\Users\Mihtop\Desktop\ECS\ECS\ide\..\hxdsp1042\newlib/libm_c.a(sf_fpclassify.o)
                0x0000669c                ____fpclassifyf
 .ostext        0x00006730       0x50 C:\Users\Mihtop\Desktop\ECS\ECS\ide\..\hxdsp1042\epos/libepos_c.a(_finit.o)
                0x00006730                ___finit
 .ostext        0x00006744       0xa0 C:\Users\Mihtop\Desktop\ECS\ECS\ide\..\hxdsp1042\epos/libepos_c.a(main.o)
                0x00006744                __sysmain
 .ostext        0x0000676c      0x200 C:\Users\Mihtop\Desktop\ECS\ECS\ide\..\hxdsp1042\epos/libepos_c.a(unsupport_newlib.o)
                0x00006788                __longjmp
                0x0000676c                __setjmp
                0x000067b0                ___times_r
                0x000067cc                ___gettimeofday_r
 .ostext        0x000067ec       0x90 C:\Users\Mihtop\Desktop\ECS\ECS\ide\..\hxdsp1042\epos/libepos_c.a(_free_r.o)
                0x000067ec                ___free_r
 .ostext        0x00006810       0xa0 C:\Users\Mihtop\Desktop\ECS\ECS\ide\..\hxdsp1042\epos/libepos_c.a(_malloc_r.o)
                0x00006810                ___malloc_r
 .ostext        0x00006838      0x5a0 C:\Users\Mihtop\Desktop\ECS\ECS\ide\..\hxdsp1042\epos/libepos_c.a(read.o)
                0x00006970                ___read_r
                0x00006838                ___read
 .ostext        0x000069a0      0x350 C:\Users\Mihtop\Desktop\ECS\ECS\ide\..\hxdsp1042\epos/libepos_c.a(lseek.o)
                0x000069a0                ___lseek
                0x00006a48                ___lseek_r
 .ostext        0x00006a74      0x590 C:\Users\Mihtop\Desktop\ECS\ECS\ide\..\hxdsp1042\epos/libepos_c.a(write.o)
                0x00006ba8                ___write_r
                0x00006a74                ___write
 .ostext        0x00006bd8      0x220 C:\Users\Mihtop\Desktop\ECS\ECS\ide\..\hxdsp1042\epos/libepos_c.a(close.o)
                0x00006c3c                ___close_r
                0x00006bd8                ___close
 .ostext        0x00006c60      0x120 C:\Users\Mihtop\Desktop\ECS\ECS\ide\..\hxdsp1042\epos/libepos_c.a(fstat.o)
                0x00006c7c                ___fstat_r
                0x00006c60                ___fstat
 .ostext        0x00006ca8      0x190 C:\Users\Mihtop\Desktop\ECS\ECS\ide\..\hxdsp1042\epos/libepos_c.a(_isatty.o)
                0x00006ce8                ___isatty_r
                0x00006ca8                ___isatty
 .ostext        0x00006d0c       0xc0 C:\Users\Mihtop\Desktop\ECS\ECS\ide\..\hxdsp1042\epos/libepos_c.a(_realloc_r.o)
                0x00006d0c                ___realloc_r
 .ostext        0x00006d3c       0xb0 C:\Users\Mihtop\Desktop\ECS\ECS\ide\..\hxdsp1042\epos/libepos_c.a(_calloc_r.o)
                0x00006d3c                ___calloc_r
 .ostext        0x00006d68      0x380 C:\Users\Mihtop\Desktop\ECS\ECS\ide\..\hxdsp1042\epos/libepos_c.a(bootcard.o)
                0x00006d94                __bootcard
 .ostext        0x00006e48      0x250 C:\Users\Mihtop\Desktop\ECS\ECS\ide\..\hxdsp1042\epos/libepos_c.a(free.o)
                0x00006e48                __free
 .ostext        0x00006edc      0x380 C:\Users\Mihtop\Desktop\ECS\ECS\ide\..\hxdsp1042\epos/libepos_c.a(malloc.o)
                0x00006edc                __malloc
 .ostext        0x00006fbc      0x420 C:\Users\Mihtop\Desktop\ECS\ECS\ide\..\hxdsp1042\epos/libepos_c.a(hostcomm.o)
                0x00006fbc                ___iserver2
                0x0000709c                _(int, short,...)(long double, void,...)(long double)
 .ostext        0x000070c4      0x1e0 C:\Users\Mihtop\Desktop\ECS\ECS\ide\..\hxdsp1042\epos/libepos_c.a(ferror.o)
                0x000070dc                ___ferror
 .ostext        0x0000713c       0xf0 C:\Users\Mihtop\Desktop\ECS\ECS\ide\..\hxdsp1042\epos/libepos_c.a(_eof.o)
                0x0000713c                ___eof
 .ostext        0x00007178      0x170 C:\Users\Mihtop\Desktop\ECS\ECS\ide\..\hxdsp1042\epos/libepos_c.a(_tell.o)
                0x00007178                ___tell
 .ostext        0x000071d4      0x3b0 C:\Users\Mihtop\Desktop\ECS\ECS\ide\..\hxdsp1042\epos/libepos_c.a(_realloc.o)
                0x000071d4                ___realloc
 .ostext        0x000072c0      0x160 C:\Users\Mihtop\Desktop\ECS\ECS\ide\..\hxdsp1042\epos/libepos_c.a(_calloc.o)
                0x000072c0                ___calloc
 .ostext        0x00007318       0xa0 C:\Users\Mihtop\Desktop\ECS\ECS\ide\..\hxdsp1042\epos/libepos_c.a(bsplibc.o)
                0x00007318                __bsp_libc_init
 .ostext        0x00007340       0x30 C:\Users\Mihtop\Desktop\ECS\ECS\ide\..\hxdsp1042\epos/libepos_c.a(cpu_asm.o)
                0x00007340                __bwdsp_disable_interrupt
                0x00007345                __bwdsp_enable_interrupt
 .ostext        0x0000734c      0x120 C:\Users\Mihtop\Desktop\ECS\ECS\ide\..\hxdsp1042\epos/libepos_c.a(bspgetworkarea.o)
                0x0000734c                __bsp_get_work_area
 .ostext        0x00007394       0x50 C:\Users\Mihtop\Desktop\ECS\ECS\ide\..\hxdsp1042\epos/libepos_c.a(bspclean.o)
                0x00007394                __bsp_cleanup
 .ostext        0x000073a8      0x230 C:\Users\Mihtop\Desktop\ECS\ECS\ide\..\hxdsp1042\epos/libepos_c.a(exinit.o)
                0x000073a8                __epos_initialize_data_structures
                0x0000740c                __epos_shutdown_executive
                0x000073e4                __epos_initialize_device_drivers
                0x000073d0                __epos_initialize_before_drivers
 .ostext        0x00007434       0x50 C:\Users\Mihtop\Desktop\ECS\ECS\ide\..\hxdsp1042\epos/libepos_c.a(bsppretaskinghook.o)
                0x00007434                __bsp_pretasking_hook
 .ostext        0x00007448       0x50 C:\Users\Mihtop\Desktop\ECS\ECS\ide\..\hxdsp1042\epos/libepos_c.a(bsppredriverhook.o)
                0x00007448                __bsp_predriver_hook
 .ostext        0x0000745c       0x50 C:\Users\Mihtop\Desktop\ECS\ECS\ide\..\hxdsp1042\epos/libepos_c.a(bsppost.o)
                0x0000745c                __bsp_postdriver_hook
 .ostext        0x00007470      0x160 C:\Users\Mihtop\Desktop\ECS\ECS\ide\..\hxdsp1042\epos/libepos_c.a(sysstate_inl.o)
                0x000074a4                ___System_state_Is_up
                0x00007470                ___System_state_Set
                0x0000748c                ___System_state_Get
 .ostext        0x000074c8      0x270 C:\Users\Mihtop\Desktop\ECS\ECS\ide\..\hxdsp1042\epos/libepos_c.a(malloc_deferred.o)
                0x000074ec                __malloc_deferred_frees_initialize
                0x00007508                __malloc_deferred_frees_process
                0x000074c8                __malloc_is_system_state_OK
                0x00007544                __malloc_deferred_free
 .ostext        0x00007564       0xa0 C:\Users\Mihtop\Desktop\ECS\ECS\ide\..\hxdsp1042\epos/libepos_c.a(pheapfree.o)
                0x00007564                ___Protected_heap_Free
 .ostext        0x0000758c      0x310 C:\Users\Mihtop\Desktop\ECS\ECS\ide\..\hxdsp1042\epos/libepos_c.a(malloc_initialize.o)
                0x0000758c                __EPOS_Malloc_Initialize
 .ostext        0x00007650      0x240 C:\Users\Mihtop\Desktop\ECS\ECS\ide\..\hxdsp1042\epos/libepos_c.a(protectedheap_inl.o)
                0x00007680                ___Protected_heap_Allocate_aligned
                0x00007650                ___Protected_heap_Initialize
                0x000076b0                ___Protected_heap_Allocate
 .ostext        0x000076e0       0xc0 C:\Users\Mihtop\Desktop\ECS\ECS\ide\..\hxdsp1042\epos/libepos_c.a(pheapgetblocksize.o)
                0x000076e0                ___Protected_heap_Get_block_size
 .ostext        0x00007710      0x100 C:\Users\Mihtop\Desktop\ECS\ECS\ide\..\hxdsp1042\epos/libepos_c.a(pheapresizeblock.o)
                0x00007710                ___Protected_heap_Resize_block
 .ostext        0x00007750      0x390 C:\Users\Mihtop\Desktop\ECS\ECS\ide\..\hxdsp1042\epos/libepos_c.a(wkspace.o)
                0x00007750                ___Workspace_Handler_initialization
                0x000077f8                ___Workspace_Allocate_or_fatal_error
                0x000077d4                ___Workspace_Free
                0x000077ac                ___Workspace_Allocate
 .ostext        0x00007834       0x70 C:\Users\Mihtop\Desktop\ECS\ECS\ide\..\hxdsp1042\epos/libepos_c.a(isr.o)
                0x00007834                ___ISR_Handler_initialization
 .ostext        0x00007850      0x1b0 C:\Users\Mihtop\Desktop\ECS\ECS\ide\..\hxdsp1042\epos/libepos_c.a(ckinit.o)
                0x00007874                __Clock_initialize
                0x00007850                __Clock_isr
 .ostext        0x000078bc     0x1480 C:\Users\Mihtop\Desktop\ECS\ECS\ide\..\hxdsp1042\epos/libepos_c.a(corechain_inl.o)
                0x00007d70                __epos_chain_initialize_empty
                0x0000797c                ___Chain_Is_null_node
                0x00007b40                ___Chain_Is_tail
                0x00007928                ___Chain_Are_nodes_equal
                0x00007c78                ___Chain_Insert_unprotected
                0x00007bb4                ___Chain_Extract_unprotected
                0x00007d10                ___Chain_Prepend_unprotected
                0x000079fc                ___Chain_Last
                0x000078bc                ___Chain_Set_off_chain
                0x00007cc0                ___Chain_Append_unprotected
                0x00007b74                ___Chain_Initialize_empty
                0x00007a1c                ___Chain_Next
                0x000078e8                ___Chain_Is_node_off_chain
                0x00007adc                ___Chain_Has_only_one_node
                0x000079a4                ___Chain_Head
                0x00007d90                __epos_chain_append
                0x00007a3c                ___Chain_Previous
                0x00007954                ___Chain_Is_null
                0x00007bf0                ___Chain_Get_first_unprotected
                0x000079dc                ___Chain_First
                0x00007b0c                ___Chain_Is_head
                0x00007d40                ___Chain_Prepend
                0x00007ab4                ___Chain_Is_last
                0x00007db4                __epos_chain_get
                0x00007c38                ___Chain_Get_unprotected
                0x00007a8c                ___Chain_Is_first
                0x00007a5c                ___Chain_Is_empty
                0x000079c0                ___Chain_Tail
 .ostext        0x00007ddc      0x990 C:\Users\Mihtop\Desktop\ECS\ECS\ide\..\hxdsp1042\epos/libepos_c.a(heapfree.o)
                0x00007ddc                ___Heap_Free
 .ostext        0x00008040       0x80 C:\Users\Mihtop\Desktop\ECS\ECS\ide\..\hxdsp1042\epos/libepos_c.a(fatal.o)
                0x00008040                __epos_fatal_error_occurred
 .ostext        0x00008060       0x90 C:\Users\Mihtop\Desktop\ECS\ECS\ide\..\hxdsp1042\epos/libepos_c.a(pheapgetsize.o)
                0x00008060                ___Protected_heap_Get_size
 .ostext        0x00008084     0x1480 C:\Users\Mihtop\Desktop\ECS\ECS\ide\..\hxdsp1042\epos/libepos_c.a(heap.o)
                0x00008084                ___Heap_Initialize
                0x00008260                ___Heap_Block_split
                0x000084b8                ___Heap_Block_allocate
 .ostext        0x000085a4       0xd0 C:\Users\Mihtop\Desktop\ECS\ECS\ide\..\hxdsp1042\epos/libepos_c.a(pheapallocate.o)
                0x000085a4                ___Protected_heap_Allocate_aligned_with_boundary
 .ostext        0x000085d8      0x2a0 C:\Users\Mihtop\Desktop\ECS\ECS\ide\..\hxdsp1042\epos/libepos_c.a(heapsizeofuserarea.o)
                0x000085d8                ___Heap_Size_of_alloc_area
 .ostext        0x00008680      0x670 C:\Users\Mihtop\Desktop\ECS\ECS\ide\..\hxdsp1042\epos/libepos_c.a(heapresizeblock.o)
                0x000087a0                ___Heap_Resize_block
 .ostext        0x0000881c       0xb0 C:\Users\Mihtop\Desktop\ECS\ECS\ide\..\hxdsp1042\epos/libepos_c.a(interr.o)
                0x0000881c                ___Internal_error_Occurred
 .ostext        0x00008848     0x1130 C:\Users\Mihtop\Desktop\ECS\ECS\ide\..\hxdsp1042\epos/libepos_c.a(heap_inl.o)
                0x000088a8                ___Heap_Free_list_head
                0x00008b8c                ___Heap_Is_used
                0x00008848                ___Heap_Allocate_aligned
                0x000089fc                ___Heap_Is_aligned
                0x00008b6c                ___Heap_Is_prev_used
                0x00008ad8                ___Heap_Alloc_area_of_block
                0x00008c38                ___Heap_Get_size
                0x00008a2c                ___Heap_Align_up
                0x00008bc4                ___Heap_Is_free
                0x00008bf0                ___Heap_Is_block_in_heap
                0x00008b1c                ___Heap_Block_size
                0x00008904                ___Heap_Free_list_last
                0x000089b4                ___Heap_Free_list_insert_after
                0x00008964                ___Heap_Free_list_replace
                0x00008b3c                ___Heap_Block_set_size
                0x00008a6c                ___Heap_Align_down
                0x000088e0                ___Heap_Free_list_first
                0x00008c54                ___Heap_Max
                0x00008ab4                ___Heap_Prev_block
                0x00008af8                ___Heap_Block_of_alloc_area
                0x00008878                ___Heap_Allocate
                0x00008a90                ___Heap_Block_at
                0x000088c4                ___Heap_Free_list_tail
                0x00008928                ___Heap_Free_list_remove
                0x00008c74                ___Heap_Min
 .ostext        0x00008c94      0x190 C:\Users\Mihtop\Desktop\ECS\ECS\ide\..\hxdsp1042\epos/libepos_c.a(interruptc.o)
                0x00008c94                __isr_installc_dsp
 .ostext        0x00008cf8      0x2c0 C:\Users\Mihtop\Desktop\ECS\ECS\ide\..\hxdsp1042\epos/libepos_c.a(intrdsp.o)
                0x00008d88                __dsp_intrcleareventmap
                0x00008cf8                __dsp_intrseteventmap
 .ostext        0x00008da8       0x20 C:\Users\Mihtop\Desktop\ECS\ECS\ide\..\hxdsp1042\epos/libepos_c.a(clock.o)
                0x00008da8                __init_timer0_int
 .ostext        0x00008db0       0xb0 C:\Users\Mihtop\Desktop\ECS\ECS\ide\..\hxdsp1042\epos/libepos_c.a(chaininsert.o)
                0x00008db0                ___Chain_Insert
 .ostext        0x00008ddc       0xb0 C:\Users\Mihtop\Desktop\ECS\ECS\ide\..\hxdsp1042\epos/libepos_c.a(chainappend.o)
                0x00008ddc                ___Chain_Append
 .ostext        0x00008e08      0x130 C:\Users\Mihtop\Desktop\ECS\ECS\ide\..\hxdsp1042\epos/libepos_c.a(chainget.o)
                0x00008e08                ___Chain_Get
 .ostext        0x00008e54      0x920 C:\Users\Mihtop\Desktop\ECS\ECS\ide\..\hxdsp1042\epos/libepos_c.a(heapallocate.o)
                0x00008f78                ___Heap_Allocate_aligned_with_boundary
 .ostext        0x0000909c     0x1650 C:\Users\Mihtop\Desktop\ECS\ECS\ide\..\hxdsp1042\epos/libepos_c.a(_interruptc.o)
                0x0000909c                _interruptc_process
 .ostext        0x00009630     0x1030 C:\Users\Mihtop\Desktop\ECS\ECS\ide\..\hxdsp1042\epos/libepos_c.a(start_interrupt.o)
                0x0000992a                _conn_sys_isr
 .ostext        0x00009a3c      0x230 C:\Users\Mihtop\Desktop\ECS\ECS\ide\..\hxdsp1042\epos/libepos_c.a(_intscr.o)
                0x00009a3c                __getintscr
                0x00009a81                __setintscr
 .ostext        0x00009ac8       0x70 C:\Users\Mihtop\Desktop\ECS\ECS\ide\..\hxdsp1042\newlib/libc_c.a(errno.o)
                0x00009ac8                ____errno
 *(.libtext)
 *(.mltext)

.lib_data       0x00200400      0xe24
 *(.osdata)
 .osdata        0x00200400      0x208 C:\Users\Mihtop\Desktop\ECS\ECS\ide\\..\hxdsp1042\newlib\crt0_c.o
                0x00200400                _current_stack_base
                0x00200402                _ARGVS
                0x00200401                _ARGC
 .osdata        0x00200482        0x4 C:\Users\Mihtop\Desktop\ECS\ECS\ide\..\hxdsp1042\newlib/libc_c.a(vfprintf.o)
 .osdata        0x00200483      0x5a8 C:\Users\Mihtop\Desktop\ECS\ECS\ide\..\hxdsp1042\newlib/libc_c.a(impure.o)
                0x002005ec                ___impure_ptr
 .osdata        0x002005ed      0x164 C:\Users\Mihtop\Desktop\ECS\ECS\ide\..\hxdsp1042\newlib/libc_c.a(locale.o)
                0x0020060d                ____mb_cur_max
 .osdata        0x00200646        0x4 C:\Users\Mihtop\Desktop\ECS\ECS\ide\..\hxdsp1042\newlib/libc_c.a(wctomb_r.o)
                0x00200646                ____wctomb
 .osdata        0x00200647        0x4 C:\Users\Mihtop\Desktop\ECS\ECS\ide\..\hxdsp1042\epos/libepos_c.a(bootcard.o)
                0x00200647                __bsp_boot_cmdline
 .osdata        0x00200648        0xc C:\Users\Mihtop\Desktop\ECS\ECS\ide\..\hxdsp1042\epos/libepos_c.a(hostcomm.o)
                0x00200648                ___maxpacksz
                0x0020064a                ___global_pserver
                0x00200649                _(short, bool, float __restrict, float,...)(long double)
 .osdata        0x0020064b      0x300 C:\Users\Mihtop\Desktop\ECS\ECS\ide\..\hxdsp1042\epos/libepos_c.a(_interrupt.o)
                0x002006cb                ___event_table
                0x0020064b                ___interrupt_table
                0x0020068b                ___interrupts
 .osdata        0x0020070b      0x100 C:\Users\Mihtop\Desktop\ECS\ECS\ide\..\hxdsp1042\epos/libepos_c.a(start_interrupt.o)
 .osdata        0x0020074b       0xf8 C:\Users\Mihtop\Desktop\ECS\ECS\ide\..\hxdsp1042\epos/libepos_c.a(_intscr.o)
 *(.libdata)
 *(.mldata)

.lib_bss        0x00200789     0x1110
                0x00200789                ____libbss_start = .
 *(.osbss)
 .osbss         0x00200789        0x0 C:\Users\Mihtop\Desktop\ECS\ECS\ide\\..\hxdsp1042\newlib\crt0_c.o
 .osbss         0x00200789        0x0 C:\Users\Mihtop\Desktop\ECS\ECS\ide\..\hxdsp1042\newlib/libc_c.a(printf.o)
 .osbss         0x00200789        0x0 C:\Users\Mihtop\Desktop\ECS\ECS\ide\..\hxdsp1042\newlib/libc_c.a(clock.o)
 .osbss         0x00200789        0x0 C:\Users\Mihtop\Desktop\ECS\ECS\ide\..\hxdsp1042\newlib/libc_c.a(int_div_precision.o)
 .osbss         0x00200789        0x0 C:\Users\Mihtop\Desktop\ECS\ECS\ide\..\hxdsp1042\newlib/libc_c.a(vfprintf.o)
 .osbss         0x00200789        0x0 C:\Users\Mihtop\Desktop\ECS\ECS\ide\..\hxdsp1042\newlib/libc_c.a(impure.o)
 .osbss         0x00200789        0x0 C:\Users\Mihtop\Desktop\ECS\ECS\ide\..\hxdsp1042\newlib/libc_c.a(fflush.o)
 .osbss         0x00200789       0x10 C:\Users\Mihtop\Desktop\ECS\ECS\ide\..\hxdsp1042\newlib/libc_c.a(locale.o)
                0x0020078c                ___PathLocale
                0x0020078b                ____mlocale_changed
                0x0020078a                ____nlocale_changed
 .osbss         0x0020078d        0x0 C:\Users\Mihtop\Desktop\ECS\ECS\ide\..\hxdsp1042\newlib/libc_c.a(strlen.o)
 .osbss         0x0020078d        0x0 C:\Users\Mihtop\Desktop\ECS\ECS\ide\..\hxdsp1042\newlib/libc_c.a(findfp.o)
 .osbss         0x0020078d        0x0 C:\Users\Mihtop\Desktop\ECS\ECS\ide\..\hxdsp1042\newlib/libc_c.a(wsetup.o)
 .osbss         0x0020078d        0x0 C:\Users\Mihtop\Desktop\ECS\ECS\ide\..\hxdsp1042\newlib/libc_c.a(vfiprintf.o)
 .osbss         0x0020078d        0x0 C:\Users\Mihtop\Desktop\ECS\ECS\ide\..\hxdsp1042\newlib/libc_c.a(memchr.o)
 .osbss         0x0020078d        0x0 C:\Users\Mihtop\Desktop\ECS\ECS\ide\..\hxdsp1042\newlib/libc_c.a(uint_div_precision.o)
 .osbss         0x0020078d        0x0 C:\Users\Mihtop\Desktop\ECS\ECS\ide\..\hxdsp1042\newlib/libc_c.a(dtoa.o)
 .osbss         0x0020078d        0x0 C:\Users\Mihtop\Desktop\ECS\ECS\ide\..\hxdsp1042\newlib/libc_c.a(fwalk.o)
 .osbss         0x0020078d        0x0 C:\Users\Mihtop\Desktop\ECS\ECS\ide\..\hxdsp1042\newlib/libc_c.a(strcmp.o)
 .osbss         0x0020078d        0x0 C:\Users\Mihtop\Desktop\ECS\ECS\ide\..\hxdsp1042\newlib/libc_c.a(memset.o)
 .osbss         0x0020078d        0x0 C:\Users\Mihtop\Desktop\ECS\ECS\ide\..\hxdsp1042\newlib/libc_c.a(stdio.o)
 .osbss         0x0020078d        0x0 C:\Users\Mihtop\Desktop\ECS\ECS\ide\..\hxdsp1042\newlib/libc_c.a(fclose.o)
 .osbss         0x0020078d        0x0 C:\Users\Mihtop\Desktop\ECS\ECS\ide\..\hxdsp1042\newlib/libc_c.a(makebuf.o)
 .osbss         0x0020078d        0x0 C:\Users\Mihtop\Desktop\ECS\ECS\ide\..\hxdsp1042\newlib/libc_c.a(fputwc.o)
 .osbss         0x0020078d        0x0 C:\Users\Mihtop\Desktop\ECS\ECS\ide\..\hxdsp1042\newlib/libc_c.a(fvwrite.o)
 .osbss         0x0020078d        0x0 C:\Users\Mihtop\Desktop\ECS\ECS\ide\..\hxdsp1042\newlib/libc_c.a(mprec.o)
 .osbss         0x0020078d        0x0 C:\Users\Mihtop\Desktop\ECS\ECS\ide\..\hxdsp1042\newlib/libc_c.a(memcpy.o)
 .osbss         0x0020078d        0x0 C:\Users\Mihtop\Desktop\ECS\ECS\ide\..\hxdsp1042\newlib/libc_c.a(wcrtomb.o)
 .osbss         0x0020078d        0x0 C:\Users\Mihtop\Desktop\ECS\ECS\ide\..\hxdsp1042\newlib/libc_c.a(wbuf.o)
 .osbss         0x0020078d        0x0 C:\Users\Mihtop\Desktop\ECS\ECS\ide\..\hxdsp1042\newlib/libc_c.a(memmove.o)
 .osbss         0x0020078d        0x0 C:\Users\Mihtop\Desktop\ECS\ECS\ide\..\hxdsp1042\newlib/libc_c.a(wctomb_r.o)
 .osbss         0x0020078d        0x0 C:\Users\Mihtop\Desktop\ECS\ECS\ide\..\hxdsp1042\newlib/libm_c.a(sf_fabs.o)
 .osbss         0x0020078d        0x0 C:\Users\Mihtop\Desktop\ECS\ECS\ide\..\hxdsp1042\newlib/libm_c.a(sf_fpclassify.o)
 .osbss         0x0020078d        0x0 C:\Users\Mihtop\Desktop\ECS\ECS\ide\..\hxdsp1042\epos/libepos_c.a(_finit.o)
 .osbss         0x0020078d        0x0 C:\Users\Mihtop\Desktop\ECS\ECS\ide\..\hxdsp1042\epos/libepos_c.a(main.o)
 .osbss         0x0020078d        0x0 C:\Users\Mihtop\Desktop\ECS\ECS\ide\..\hxdsp1042\epos/libepos_c.a(unsupport_newlib.o)
 .osbss         0x0020078d        0x0 C:\Users\Mihtop\Desktop\ECS\ECS\ide\..\hxdsp1042\epos/libepos_c.a(_free_r.o)
 .osbss         0x0020078d        0x0 C:\Users\Mihtop\Desktop\ECS\ECS\ide\..\hxdsp1042\epos/libepos_c.a(_malloc_r.o)
 .osbss         0x0020078d        0x0 C:\Users\Mihtop\Desktop\ECS\ECS\ide\..\hxdsp1042\epos/libepos_c.a(read.o)
 .osbss         0x0020078d        0x0 C:\Users\Mihtop\Desktop\ECS\ECS\ide\..\hxdsp1042\epos/libepos_c.a(lseek.o)
 .osbss         0x0020078d        0x0 C:\Users\Mihtop\Desktop\ECS\ECS\ide\..\hxdsp1042\epos/libepos_c.a(write.o)
 .osbss         0x0020078d        0x0 C:\Users\Mihtop\Desktop\ECS\ECS\ide\..\hxdsp1042\epos/libepos_c.a(close.o)
 .osbss         0x0020078d        0x0 C:\Users\Mihtop\Desktop\ECS\ECS\ide\..\hxdsp1042\epos/libepos_c.a(fstat.o)
 .osbss         0x0020078d        0x0 C:\Users\Mihtop\Desktop\ECS\ECS\ide\..\hxdsp1042\epos/libepos_c.a(_isatty.o)
 .osbss         0x0020078d        0x0 C:\Users\Mihtop\Desktop\ECS\ECS\ide\..\hxdsp1042\epos/libepos_c.a(_realloc_r.o)
 .osbss         0x0020078d        0x0 C:\Users\Mihtop\Desktop\ECS\ECS\ide\..\hxdsp1042\epos/libepos_c.a(_calloc_r.o)
 .osbss         0x0020078d        0x0 C:\Users\Mihtop\Desktop\ECS\ECS\ide\..\hxdsp1042\epos/libepos_c.a(bootcard.o)
 .osbss         0x0020078d        0x0 C:\Users\Mihtop\Desktop\ECS\ECS\ide\..\hxdsp1042\epos/libepos_c.a(free.o)
 .osbss         0x0020078d        0x0 C:\Users\Mihtop\Desktop\ECS\ECS\ide\..\hxdsp1042\epos/libepos_c.a(malloc.o)
 .osbss         0x0020078d     0x1034 C:\Users\Mihtop\Desktop\ECS\ECS\ide\..\hxdsp1042\epos/libepos_c.a(hostcomm.o)
                0x00200b8f                ___debug_data
                0x0020078d                ___systime
                0x0020078e                ___iobuffer
 .osbss         0x00200b9a        0x0 C:\Users\Mihtop\Desktop\ECS\ECS\ide\..\hxdsp1042\epos/libepos_c.a(ferror.o)
 .osbss         0x00200b9a        0x0 C:\Users\Mihtop\Desktop\ECS\ECS\ide\..\hxdsp1042\epos/libepos_c.a(_eof.o)
 .osbss         0x00200b9a        0x0 C:\Users\Mihtop\Desktop\ECS\ECS\ide\..\hxdsp1042\epos/libepos_c.a(_tell.o)
 .osbss         0x00200b9a        0x0 C:\Users\Mihtop\Desktop\ECS\ECS\ide\..\hxdsp1042\epos/libepos_c.a(_realloc.o)
 .osbss         0x00200b9a        0x0 C:\Users\Mihtop\Desktop\ECS\ECS\ide\..\hxdsp1042\epos/libepos_c.a(_calloc.o)
 .osbss         0x00200b9a        0x0 C:\Users\Mihtop\Desktop\ECS\ECS\ide\..\hxdsp1042\epos/libepos_c.a(bsplibc.o)
 .osbss         0x00200b9a        0x0 C:\Users\Mihtop\Desktop\ECS\ECS\ide\..\hxdsp1042\epos/libepos_c.a(cpu_asm.o)
 .osbss         0x00200b9a        0x0 C:\Users\Mihtop\Desktop\ECS\ECS\ide\..\hxdsp1042\epos/libepos_c.a(bspgetworkarea.o)
 .osbss         0x00200b9a        0x0 C:\Users\Mihtop\Desktop\ECS\ECS\ide\..\hxdsp1042\epos/libepos_c.a(bspclean.o)
 .osbss         0x00200b9a       0x90 C:\Users\Mihtop\Desktop\ECS\ECS\ide\..\hxdsp1042\epos/libepos_c.a(exinit.o)
                0x00200ba4                ___System_state_Current
                0x00200b9d                ___Objects_Information_table
                0x00200ba5                ___Internal_errors_What_happened
                0x00200b9a                ___Internal_Objects
                0x00200ba3                __epos_ada_self
                0x00200ba2                ___ISR_Nest_level
                0x00200ba8                ___Workspace_Area
 .osbss         0x00200bbe        0x0 C:\Users\Mihtop\Desktop\ECS\ECS\ide\..\hxdsp1042\epos/libepos_c.a(bsppretaskinghook.o)
 .osbss         0x00200bbe        0x0 C:\Users\Mihtop\Desktop\ECS\ECS\ide\..\hxdsp1042\epos/libepos_c.a(bsppredriverhook.o)
 .osbss         0x00200bbe        0x0 C:\Users\Mihtop\Desktop\ECS\ECS\ide\..\hxdsp1042\epos/libepos_c.a(bsppost.o)
 .osbss         0x00200bbe        0x0 C:\Users\Mihtop\Desktop\ECS\ECS\ide\..\hxdsp1042\epos/libepos_c.a(sysstate_inl.o)
 .osbss         0x00200bbe        0xc C:\Users\Mihtop\Desktop\ECS\ECS\ide\..\hxdsp1042\epos/libepos_c.a(malloc_deferred.o)
                0x00200bbe                __EPOS_Malloc_GC_list
 .osbss         0x00200bc1        0x0 C:\Users\Mihtop\Desktop\ECS\ECS\ide\..\hxdsp1042\epos/libepos_c.a(pheapfree.o)
 .osbss         0x00200bc1       0x24 C:\Users\Mihtop\Desktop\ECS\ECS\ide\..\hxdsp1042\epos/libepos_c.a(malloc_initialize.o)
                0x00200bc1                __epos_malloc_statistics
 .osbss         0x00200bca        0x0 C:\Users\Mihtop\Desktop\ECS\ECS\ide\..\hxdsp1042\epos/libepos_c.a(protectedheap_inl.o)
 .osbss         0x00200bca        0x0 C:\Users\Mihtop\Desktop\ECS\ECS\ide\..\hxdsp1042\epos/libepos_c.a(pheapgetblocksize.o)
 .osbss         0x00200bca        0x0 C:\Users\Mihtop\Desktop\ECS\ECS\ide\..\hxdsp1042\epos/libepos_c.a(pheapresizeblock.o)
 .osbss         0x00200bca        0x0 C:\Users\Mihtop\Desktop\ECS\ECS\ide\..\hxdsp1042\epos/libepos_c.a(wkspace.o)
 .osbss         0x00200bca        0x0 C:\Users\Mihtop\Desktop\ECS\ECS\ide\..\hxdsp1042\epos/libepos_c.a(isr.o)
 .osbss         0x00200bca        0x8 C:\Users\Mihtop\Desktop\ECS\ECS\ide\..\hxdsp1042\epos/libepos_c.a(ckinit.o)
                0x00200bcb                __Clock_isrs
                0x00200bca                __Clock_driver_ticks
 .osbss         0x00200bcc        0x0 C:\Users\Mihtop\Desktop\ECS\ECS\ide\..\hxdsp1042\epos/libepos_c.a(corechain_inl.o)
 .osbss         0x00200bcc        0x0 C:\Users\Mihtop\Desktop\ECS\ECS\ide\..\hxdsp1042\epos/libepos_c.a(heapfree.o)
 .osbss         0x00200bcc        0x0 C:\Users\Mihtop\Desktop\ECS\ECS\ide\..\hxdsp1042\epos/libepos_c.a(fatal.o)
 .osbss         0x00200bcc        0x0 C:\Users\Mihtop\Desktop\ECS\ECS\ide\..\hxdsp1042\epos/libepos_c.a(pheapgetsize.o)
 .osbss         0x00200bcc        0x4 C:\Users\Mihtop\Desktop\ECS\ECS\ide\..\hxdsp1042\epos/libepos_c.a(heap.o)
 .osbss         0x00200bcd        0x0 C:\Users\Mihtop\Desktop\ECS\ECS\ide\..\hxdsp1042\epos/libepos_c.a(pheapallocate.o)
 .osbss         0x00200bcd        0x0 C:\Users\Mihtop\Desktop\ECS\ECS\ide\..\hxdsp1042\epos/libepos_c.a(heapsizeofuserarea.o)
 .osbss         0x00200bcd        0x0 C:\Users\Mihtop\Desktop\ECS\ECS\ide\..\hxdsp1042\epos/libepos_c.a(heapresizeblock.o)
 .osbss         0x00200bcd        0x0 C:\Users\Mihtop\Desktop\ECS\ECS\ide\..\hxdsp1042\epos/libepos_c.a(interr.o)
 .osbss         0x00200bcd        0x0 C:\Users\Mihtop\Desktop\ECS\ECS\ide\..\hxdsp1042\epos/libepos_c.a(heap_inl.o)
 .osbss         0x00200bcd        0x0 C:\Users\Mihtop\Desktop\ECS\ECS\ide\..\hxdsp1042\epos/libepos_c.a(interruptc.o)
 .osbss         0x00200bcd        0x0 C:\Users\Mihtop\Desktop\ECS\ECS\ide\..\hxdsp1042\epos/libepos_c.a(intrdsp.o)
 .osbss         0x00200bcd        0x0 C:\Users\Mihtop\Desktop\ECS\ECS\ide\..\hxdsp1042\epos/libepos_c.a(clock.o)
 .osbss         0x00200bcd        0x0 C:\Users\Mihtop\Desktop\ECS\ECS\ide\..\hxdsp1042\epos/libepos_c.a(chaininsert.o)
 .osbss         0x00200bcd        0x0 C:\Users\Mihtop\Desktop\ECS\ECS\ide\..\hxdsp1042\epos/libepos_c.a(chainappend.o)
 .osbss         0x00200bcd        0x0 C:\Users\Mihtop\Desktop\ECS\ECS\ide\..\hxdsp1042\epos/libepos_c.a(chainget.o)
 .osbss         0x00200bcd        0x0 C:\Users\Mihtop\Desktop\ECS\ECS\ide\..\hxdsp1042\epos/libepos_c.a(heapallocate.o)
 .osbss         0x00200bcd        0x0 C:\Users\Mihtop\Desktop\ECS\ECS\ide\..\hxdsp1042\epos/libepos_c.a(_interruptc.o)
 .osbss         0x00200bcd        0x0 C:\Users\Mihtop\Desktop\ECS\ECS\ide\..\hxdsp1042\epos/libepos_c.a(_interrupt.o)
 .osbss         0x00200bcd        0x0 C:\Users\Mihtop\Desktop\ECS\ECS\ide\..\hxdsp1042\epos/libepos_c.a(start_interrupt.o)
 .osbss         0x00200bcd        0x0 C:\Users\Mihtop\Desktop\ECS\ECS\ide\..\hxdsp1042\epos/libepos_c.a(_intscr.o)
 .osbss         0x00200bcd        0x0 C:\Users\Mihtop\Desktop\ECS\ECS\ide\..\hxdsp1042\newlib/libc_c.a(errno.o)
 *(.libbss)
 *(.mlbss)
                0x00200bcd                ____libbss_end = .

.lib_rodata     0x00200bcd      0xbe4
 *(.osrodata)
 .osrodata      0x00200bcd      0x320 C:\Users\Mihtop\Desktop\ECS\ECS\ide\..\hxdsp1042\newlib/libc_c.a(vfprintf.o)
 .osrodata      0x00200c95        0xc C:\Users\Mihtop\Desktop\ECS\ECS\ide\..\hxdsp1042\newlib/libc_c.a(impure.o)
                0x00200c95                ___global_impure_ptr
 .osrodata      0x00200c98       0x2c C:\Users\Mihtop\Desktop\ECS\ECS\ide\..\hxdsp1042\newlib/libc_c.a(locale.o)
 .osrodata      0x00200ca3      0x2d4 C:\Users\Mihtop\Desktop\ECS\ECS\ide\..\hxdsp1042\newlib/libc_c.a(vfiprintf.o)
 .osrodata      0x00200d58       0x6c C:\Users\Mihtop\Desktop\ECS\ECS\ide\..\hxdsp1042\newlib/libc_c.a(dtoa.o)
 .osrodata      0x00200d73       0x88 C:\Users\Mihtop\Desktop\ECS\ECS\ide\..\hxdsp1042\newlib/libc_c.a(mprec.o)
                0x00200d76                ____mprec_tens
                0x00200d8f                ____mprec_tinytens
                0x00200d91                ____mprec_bigtens
 .osrodata      0x00200d95       0x44 C:\Users\Mihtop\Desktop\ECS\ECS\ide\..\hxdsp1042\epos/libepos_c.a(bootcard.o)
 .osrodata      0x00200da6      0x480 C:\Users\Mihtop\Desktop\ECS\ECS\ide\..\hxdsp1042\epos/libepos_c.a(exinit.o)
                0x00200dc6                ____log2table
                0x00200da6                ___Copyright_Notice
 *(.librodata)
 *(.mlrodata)

.text           0x00e20000     0x5660
 *(.text)
 .text          0x00e20000        0x0 C:\Users\Mihtop\Desktop\ECS\ECS\ide\\..\hxdsp1042\newlib\crt0_c.o
 .text          0x00e20000      0x5d0 ./bw_cvabs_f.o
                0x00e20000                __bw_cvabs_f
 .text          0x00e20174     0x1ed0 ./bw_cvfft_f.o
                0x00e20174                __bw_cfft
 .text          0x00e20928     0x1750 ./bw_cvifft_f.o
                0x00e20928                __bw_cvifft_f
 .text          0x00e20efc      0x110 ./complex_multi.o
                0x00e20efc                __complex_multi
 .text          0x00e20f40       0xd0 ./div_func.o
                0x00e20f40                __div_func
 .text          0x00e20f74       0x30 ./get_coreid.o
                0x00e20f74                __get_coreid
 .text          0x00e20f80     0x1760 ./init.o
                0x00e20f80                __main
                0x00e21110                __init
                0x00e2130c                __Fir
                0x00e2119c                __DFT
 .text          0x00e21558      0x100 ./bsp/bspstart.o
                0x00e21558                __bsp_start
 .text          0x00e21598        0x0 C:\Users\Mihtop\Desktop\ECS\ECS\ide\..\hxdsp1042\newlib/libc_c.a(printf.o)
 .text          0x00e21598        0x0 C:\Users\Mihtop\Desktop\ECS\ECS\ide\..\hxdsp1042\newlib/libc_c.a(clock.o)
 .text          0x00e21598        0x0 C:\Users\Mihtop\Desktop\ECS\ECS\ide\..\hxdsp1042\newlib/libc_c.a(int_div_precision.o)
 .text          0x00e21598        0x0 C:\Users\Mihtop\Desktop\ECS\ECS\ide\..\hxdsp1042\newlib/libc_c.a(vfprintf.o)
 .text          0x00e21598        0x0 C:\Users\Mihtop\Desktop\ECS\ECS\ide\..\hxdsp1042\newlib/libc_c.a(impure.o)
 .text          0x00e21598        0x0 C:\Users\Mihtop\Desktop\ECS\ECS\ide\..\hxdsp1042\newlib/libc_c.a(fflush.o)
 .text          0x00e21598        0x0 C:\Users\Mihtop\Desktop\ECS\ECS\ide\..\hxdsp1042\newlib/libc_c.a(locale.o)
 .text          0x00e21598        0x0 C:\Users\Mihtop\Desktop\ECS\ECS\ide\..\hxdsp1042\newlib/libc_c.a(strlen.o)
 .text          0x00e21598        0x0 C:\Users\Mihtop\Desktop\ECS\ECS\ide\..\hxdsp1042\newlib/libc_c.a(findfp.o)
 .text          0x00e21598        0x0 C:\Users\Mihtop\Desktop\ECS\ECS\ide\..\hxdsp1042\newlib/libc_c.a(wsetup.o)
 .text          0x00e21598        0x0 C:\Users\Mihtop\Desktop\ECS\ECS\ide\..\hxdsp1042\newlib/libc_c.a(vfiprintf.o)
 .text          0x00e21598        0x0 C:\Users\Mihtop\Desktop\ECS\ECS\ide\..\hxdsp1042\newlib/libc_c.a(memchr.o)
 .text          0x00e21598        0x0 C:\Users\Mihtop\Desktop\ECS\ECS\ide\..\hxdsp1042\newlib/libc_c.a(uint_div_precision.o)
 .text          0x00e21598        0x0 C:\Users\Mihtop\Desktop\ECS\ECS\ide\..\hxdsp1042\newlib/libc_c.a(dtoa.o)
 .text          0x00e21598        0x0 C:\Users\Mihtop\Desktop\ECS\ECS\ide\..\hxdsp1042\newlib/libc_c.a(fwalk.o)
 .text          0x00e21598        0x0 C:\Users\Mihtop\Desktop\ECS\ECS\ide\..\hxdsp1042\newlib/libc_c.a(strcmp.o)
 .text          0x00e21598        0x0 C:\Users\Mihtop\Desktop\ECS\ECS\ide\..\hxdsp1042\newlib/libc_c.a(memset.o)
 .text          0x00e21598        0x0 C:\Users\Mihtop\Desktop\ECS\ECS\ide\..\hxdsp1042\newlib/libc_c.a(stdio.o)
 .text          0x00e21598        0x0 C:\Users\Mihtop\Desktop\ECS\ECS\ide\..\hxdsp1042\newlib/libc_c.a(fclose.o)
 .text          0x00e21598        0x0 C:\Users\Mihtop\Desktop\ECS\ECS\ide\..\hxdsp1042\newlib/libc_c.a(makebuf.o)
 .text          0x00e21598        0x0 C:\Users\Mihtop\Desktop\ECS\ECS\ide\..\hxdsp1042\newlib/libc_c.a(fputwc.o)
 .text          0x00e21598        0x0 C:\Users\Mihtop\Desktop\ECS\ECS\ide\..\hxdsp1042\newlib/libc_c.a(fvwrite.o)
 .text          0x00e21598        0x0 C:\Users\Mihtop\Desktop\ECS\ECS\ide\..\hxdsp1042\newlib/libc_c.a(mprec.o)
 .text          0x00e21598        0x0 C:\Users\Mihtop\Desktop\ECS\ECS\ide\..\hxdsp1042\newlib/libc_c.a(memcpy.o)
 .text          0x00e21598        0x0 C:\Users\Mihtop\Desktop\ECS\ECS\ide\..\hxdsp1042\newlib/libc_c.a(wcrtomb.o)
 .text          0x00e21598        0x0 C:\Users\Mihtop\Desktop\ECS\ECS\ide\..\hxdsp1042\newlib/libc_c.a(wbuf.o)
 .text          0x00e21598        0x0 C:\Users\Mihtop\Desktop\ECS\ECS\ide\..\hxdsp1042\newlib/libc_c.a(memmove.o)
 .text          0x00e21598        0x0 C:\Users\Mihtop\Desktop\ECS\ECS\ide\..\hxdsp1042\newlib/libc_c.a(wctomb_r.o)
 .text          0x00e21598        0x0 C:\Users\Mihtop\Desktop\ECS\ECS\ide\..\hxdsp1042\newlib/libm_c.a(sf_fabs.o)
 .text          0x00e21598        0x0 C:\Users\Mihtop\Desktop\ECS\ECS\ide\..\hxdsp1042\newlib/libm_c.a(sf_fpclassify.o)
 .text          0x00e21598        0x0 C:\Users\Mihtop\Desktop\ECS\ECS\ide\..\hxdsp1042\epos/libepos_c.a(_finit.o)
 .text          0x00e21598        0x0 C:\Users\Mihtop\Desktop\ECS\ECS\ide\..\hxdsp1042\epos/libepos_c.a(main.o)
 .text          0x00e21598        0x0 C:\Users\Mihtop\Desktop\ECS\ECS\ide\..\hxdsp1042\epos/libepos_c.a(unsupport_newlib.o)
 .text          0x00e21598        0x0 C:\Users\Mihtop\Desktop\ECS\ECS\ide\..\hxdsp1042\epos/libepos_c.a(_free_r.o)
 .text          0x00e21598        0x0 C:\Users\Mihtop\Desktop\ECS\ECS\ide\..\hxdsp1042\epos/libepos_c.a(_malloc_r.o)
 .text          0x00e21598        0x0 C:\Users\Mihtop\Desktop\ECS\ECS\ide\..\hxdsp1042\epos/libepos_c.a(read.o)
 .text          0x00e21598        0x0 C:\Users\Mihtop\Desktop\ECS\ECS\ide\..\hxdsp1042\epos/libepos_c.a(lseek.o)
 .text          0x00e21598        0x0 C:\Users\Mihtop\Desktop\ECS\ECS\ide\..\hxdsp1042\epos/libepos_c.a(write.o)
 .text          0x00e21598        0x0 C:\Users\Mihtop\Desktop\ECS\ECS\ide\..\hxdsp1042\epos/libepos_c.a(close.o)
 .text          0x00e21598        0x0 C:\Users\Mihtop\Desktop\ECS\ECS\ide\..\hxdsp1042\epos/libepos_c.a(fstat.o)
 .text          0x00e21598        0x0 C:\Users\Mihtop\Desktop\ECS\ECS\ide\..\hxdsp1042\epos/libepos_c.a(_isatty.o)
 .text          0x00e21598        0x0 C:\Users\Mihtop\Desktop\ECS\ECS\ide\..\hxdsp1042\epos/libepos_c.a(_realloc_r.o)
 .text          0x00e21598        0x0 C:\Users\Mihtop\Desktop\ECS\ECS\ide\..\hxdsp1042\epos/libepos_c.a(_calloc_r.o)
 .text          0x00e21598        0x0 C:\Users\Mihtop\Desktop\ECS\ECS\ide\..\hxdsp1042\epos/libepos_c.a(bootcard.o)
 .text          0x00e21598        0x0 C:\Users\Mihtop\Desktop\ECS\ECS\ide\..\hxdsp1042\epos/libepos_c.a(free.o)
 .text          0x00e21598        0x0 C:\Users\Mihtop\Desktop\ECS\ECS\ide\..\hxdsp1042\epos/libepos_c.a(malloc.o)
 .text          0x00e21598        0x0 C:\Users\Mihtop\Desktop\ECS\ECS\ide\..\hxdsp1042\epos/libepos_c.a(hostcomm.o)
 .text          0x00e21598        0x0 C:\Users\Mihtop\Desktop\ECS\ECS\ide\..\hxdsp1042\epos/libepos_c.a(ferror.o)
 .text          0x00e21598        0x0 C:\Users\Mihtop\Desktop\ECS\ECS\ide\..\hxdsp1042\epos/libepos_c.a(_eof.o)
 .text          0x00e21598        0x0 C:\Users\Mihtop\Desktop\ECS\ECS\ide\..\hxdsp1042\epos/libepos_c.a(_tell.o)
 .text          0x00e21598        0x0 C:\Users\Mihtop\Desktop\ECS\ECS\ide\..\hxdsp1042\epos/libepos_c.a(_realloc.o)
 .text          0x00e21598        0x0 C:\Users\Mihtop\Desktop\ECS\ECS\ide\..\hxdsp1042\epos/libepos_c.a(_calloc.o)
 .text          0x00e21598        0x0 C:\Users\Mihtop\Desktop\ECS\ECS\ide\..\hxdsp1042\epos/libepos_c.a(bsplibc.o)
 .text          0x00e21598        0x0 C:\Users\Mihtop\Desktop\ECS\ECS\ide\..\hxdsp1042\epos/libepos_c.a(cpu_asm.o)
 .text          0x00e21598        0x0 C:\Users\Mihtop\Desktop\ECS\ECS\ide\..\hxdsp1042\epos/libepos_c.a(bspgetworkarea.o)
 .text          0x00e21598        0x0 C:\Users\Mihtop\Desktop\ECS\ECS\ide\..\hxdsp1042\epos/libepos_c.a(bspclean.o)
 .text          0x00e21598        0x0 C:\Users\Mihtop\Desktop\ECS\ECS\ide\..\hxdsp1042\epos/libepos_c.a(exinit.o)
 .text          0x00e21598        0x0 C:\Users\Mihtop\Desktop\ECS\ECS\ide\..\hxdsp1042\epos/libepos_c.a(bsppretaskinghook.o)
 .text          0x00e21598        0x0 C:\Users\Mihtop\Desktop\ECS\ECS\ide\..\hxdsp1042\epos/libepos_c.a(bsppredriverhook.o)
 .text          0x00e21598        0x0 C:\Users\Mihtop\Desktop\ECS\ECS\ide\..\hxdsp1042\epos/libepos_c.a(bsppost.o)
 .text          0x00e21598        0x0 C:\Users\Mihtop\Desktop\ECS\ECS\ide\..\hxdsp1042\epos/libepos_c.a(sysstate_inl.o)
 .text          0x00e21598        0x0 C:\Users\Mihtop\Desktop\ECS\ECS\ide\..\hxdsp1042\epos/libepos_c.a(malloc_deferred.o)
 .text          0x00e21598        0x0 C:\Users\Mihtop\Desktop\ECS\ECS\ide\..\hxdsp1042\epos/libepos_c.a(pheapfree.o)
 .text          0x00e21598        0x0 C:\Users\Mihtop\Desktop\ECS\ECS\ide\..\hxdsp1042\epos/libepos_c.a(malloc_initialize.o)
 .text          0x00e21598        0x0 C:\Users\Mihtop\Desktop\ECS\ECS\ide\..\hxdsp1042\epos/libepos_c.a(protectedheap_inl.o)
 .text          0x00e21598        0x0 C:\Users\Mihtop\Desktop\ECS\ECS\ide\..\hxdsp1042\epos/libepos_c.a(pheapgetblocksize.o)
 .text          0x00e21598        0x0 C:\Users\Mihtop\Desktop\ECS\ECS\ide\..\hxdsp1042\epos/libepos_c.a(pheapresizeblock.o)
 .text          0x00e21598        0x0 C:\Users\Mihtop\Desktop\ECS\ECS\ide\..\hxdsp1042\epos/libepos_c.a(wkspace.o)
 .text          0x00e21598        0x0 C:\Users\Mihtop\Desktop\ECS\ECS\ide\..\hxdsp1042\epos/libepos_c.a(isr.o)
 .text          0x00e21598        0x0 C:\Users\Mihtop\Desktop\ECS\ECS\ide\..\hxdsp1042\epos/libepos_c.a(ckinit.o)
 .text          0x00e21598        0x0 C:\Users\Mihtop\Desktop\ECS\ECS\ide\..\hxdsp1042\epos/libepos_c.a(corechain_inl.o)
 .text          0x00e21598        0x0 C:\Users\Mihtop\Desktop\ECS\ECS\ide\..\hxdsp1042\epos/libepos_c.a(heapfree.o)
 .text          0x00e21598        0x0 C:\Users\Mihtop\Desktop\ECS\ECS\ide\..\hxdsp1042\epos/libepos_c.a(fatal.o)
 .text          0x00e21598        0x0 C:\Users\Mihtop\Desktop\ECS\ECS\ide\..\hxdsp1042\epos/libepos_c.a(pheapgetsize.o)
 .text          0x00e21598        0x0 C:\Users\Mihtop\Desktop\ECS\ECS\ide\..\hxdsp1042\epos/libepos_c.a(heap.o)
 .text          0x00e21598        0x0 C:\Users\Mihtop\Desktop\ECS\ECS\ide\..\hxdsp1042\epos/libepos_c.a(pheapallocate.o)
 .text          0x00e21598        0x0 C:\Users\Mihtop\Desktop\ECS\ECS\ide\..\hxdsp1042\epos/libepos_c.a(heapsizeofuserarea.o)
 .text          0x00e21598        0x0 C:\Users\Mihtop\Desktop\ECS\ECS\ide\..\hxdsp1042\epos/libepos_c.a(heapresizeblock.o)
 .text          0x00e21598        0x0 C:\Users\Mihtop\Desktop\ECS\ECS\ide\..\hxdsp1042\epos/libepos_c.a(interr.o)
 .text          0x00e21598        0x0 C:\Users\Mihtop\Desktop\ECS\ECS\ide\..\hxdsp1042\epos/libepos_c.a(heap_inl.o)
 .text          0x00e21598        0x0 C:\Users\Mihtop\Desktop\ECS\ECS\ide\..\hxdsp1042\epos/libepos_c.a(interruptc.o)
 .text          0x00e21598        0x0 C:\Users\Mihtop\Desktop\ECS\ECS\ide\..\hxdsp1042\epos/libepos_c.a(intrdsp.o)
 .text          0x00e21598        0x0 C:\Users\Mihtop\Desktop\ECS\ECS\ide\..\hxdsp1042\epos/libepos_c.a(clock.o)
 .text          0x00e21598        0x0 C:\Users\Mihtop\Desktop\ECS\ECS\ide\..\hxdsp1042\epos/libepos_c.a(chaininsert.o)
 .text          0x00e21598        0x0 C:\Users\Mihtop\Desktop\ECS\ECS\ide\..\hxdsp1042\epos/libepos_c.a(chainappend.o)
 .text          0x00e21598        0x0 C:\Users\Mihtop\Desktop\ECS\ECS\ide\..\hxdsp1042\epos/libepos_c.a(chainget.o)
 .text          0x00e21598        0x0 C:\Users\Mihtop\Desktop\ECS\ECS\ide\..\hxdsp1042\epos/libepos_c.a(heapallocate.o)
 .text          0x00e21598        0x0 C:\Users\Mihtop\Desktop\ECS\ECS\ide\..\hxdsp1042\epos/libepos_c.a(_interruptc.o)
 .text          0x00e21598        0x0 C:\Users\Mihtop\Desktop\ECS\ECS\ide\..\hxdsp1042\epos/libepos_c.a(_interrupt.o)
 .text          0x00e21598        0x0 C:\Users\Mihtop\Desktop\ECS\ECS\ide\..\hxdsp1042\epos/libepos_c.a(start_interrupt.o)
 .text          0x00e21598        0x0 C:\Users\Mihtop\Desktop\ECS\ECS\ide\..\hxdsp1042\epos/libepos_c.a(_intscr.o)
 .text          0x00e21598        0x0 C:\Users\Mihtop\Desktop\ECS\ECS\ide\..\hxdsp1042\newlib/libc_c.a(errno.o)

.data           0x00208400     0x3494
 *(.data)
 .data          0x00208400        0x0 C:\Users\Mihtop\Desktop\ECS\ECS\ide\\..\hxdsp1042\newlib\crt0_c.o
 .data          0x00208400        0x0 ./bw_cvabs_f.o
 .data          0x00208400        0x0 ./bw_cvfft_f.o
 .data          0x00208400        0x0 ./bw_cvifft_f.o
 .data          0x00208400        0x0 ./complex_multi.o
 .data          0x00208400        0x0 ./div_func.o
 .data          0x00208400        0x0 ./get_coreid.o
 .data          0x00208400     0x3494 ./init.o
                0x00209101                __epos_minimum_stack_size
                0x00209123                __epos_libio_number_iops
                0x0020910e                __Configuration
                0x00209124                __EPOS_Malloc_Heap
                0x00208901                __cos_mx
                0x00208d01                __sin_mx
                0x00209102                __Configuration_EPOS_API
                0x0020911d                __sysinfo
 .data          0x00209125        0x0 ./bsp/bspstart.o
 .data          0x00209125        0x0 C:\Users\Mihtop\Desktop\ECS\ECS\ide\..\hxdsp1042\newlib/libc_c.a(printf.o)
 .data          0x00209125        0x0 C:\Users\Mihtop\Desktop\ECS\ECS\ide\..\hxdsp1042\newlib/libc_c.a(clock.o)
 .data          0x00209125        0x0 C:\Users\Mihtop\Desktop\ECS\ECS\ide\..\hxdsp1042\newlib/libc_c.a(int_div_precision.o)
 .data          0x00209125        0x0 C:\Users\Mihtop\Desktop\ECS\ECS\ide\..\hxdsp1042\newlib/libc_c.a(vfprintf.o)
 .data          0x00209125        0x0 C:\Users\Mihtop\Desktop\ECS\ECS\ide\..\hxdsp1042\newlib/libc_c.a(impure.o)
 .data          0x00209125        0x0 C:\Users\Mihtop\Desktop\ECS\ECS\ide\..\hxdsp1042\newlib/libc_c.a(fflush.o)
 .data          0x00209125        0x0 C:\Users\Mihtop\Desktop\ECS\ECS\ide\..\hxdsp1042\newlib/libc_c.a(locale.o)
 .data          0x00209125        0x0 C:\Users\Mihtop\Desktop\ECS\ECS\ide\..\hxdsp1042\newlib/libc_c.a(strlen.o)
 .data          0x00209125        0x0 C:\Users\Mihtop\Desktop\ECS\ECS\ide\..\hxdsp1042\newlib/libc_c.a(findfp.o)
 .data          0x00209125        0x0 C:\Users\Mihtop\Desktop\ECS\ECS\ide\..\hxdsp1042\newlib/libc_c.a(wsetup.o)
 .data          0x00209125        0x0 C:\Users\Mihtop\Desktop\ECS\ECS\ide\..\hxdsp1042\newlib/libc_c.a(vfiprintf.o)
 .data          0x00209125        0x0 C:\Users\Mihtop\Desktop\ECS\ECS\ide\..\hxdsp1042\newlib/libc_c.a(memchr.o)
 .data          0x00209125        0x0 C:\Users\Mihtop\Desktop\ECS\ECS\ide\..\hxdsp1042\newlib/libc_c.a(uint_div_precision.o)
 .data          0x00209125        0x0 C:\Users\Mihtop\Desktop\ECS\ECS\ide\..\hxdsp1042\newlib/libc_c.a(dtoa.o)
 .data          0x00209125        0x0 C:\Users\Mihtop\Desktop\ECS\ECS\ide\..\hxdsp1042\newlib/libc_c.a(fwalk.o)
 .data          0x00209125        0x0 C:\Users\Mihtop\Desktop\ECS\ECS\ide\..\hxdsp1042\newlib/libc_c.a(strcmp.o)
 .data          0x00209125        0x0 C:\Users\Mihtop\Desktop\ECS\ECS\ide\..\hxdsp1042\newlib/libc_c.a(memset.o)
 .data          0x00209125        0x0 C:\Users\Mihtop\Desktop\ECS\ECS\ide\..\hxdsp1042\newlib/libc_c.a(stdio.o)
 .data          0x00209125        0x0 C:\Users\Mihtop\Desktop\ECS\ECS\ide\..\hxdsp1042\newlib/libc_c.a(fclose.o)
 .data          0x00209125        0x0 C:\Users\Mihtop\Desktop\ECS\ECS\ide\..\hxdsp1042\newlib/libc_c.a(makebuf.o)
 .data          0x00209125        0x0 C:\Users\Mihtop\Desktop\ECS\ECS\ide\..\hxdsp1042\newlib/libc_c.a(fputwc.o)
 .data          0x00209125        0x0 C:\Users\Mihtop\Desktop\ECS\ECS\ide\..\hxdsp1042\newlib/libc_c.a(fvwrite.o)
 .data          0x00209125        0x0 C:\Users\Mihtop\Desktop\ECS\ECS\ide\..\hxdsp1042\newlib/libc_c.a(mprec.o)
 .data          0x00209125        0x0 C:\Users\Mihtop\Desktop\ECS\ECS\ide\..\hxdsp1042\newlib/libc_c.a(memcpy.o)
 .data          0x00209125        0x0 C:\Users\Mihtop\Desktop\ECS\ECS\ide\..\hxdsp1042\newlib/libc_c.a(wcrtomb.o)
 .data          0x00209125        0x0 C:\Users\Mihtop\Desktop\ECS\ECS\ide\..\hxdsp1042\newlib/libc_c.a(wbuf.o)
 .data          0x00209125        0x0 C:\Users\Mihtop\Desktop\ECS\ECS\ide\..\hxdsp1042\newlib/libc_c.a(memmove.o)
 .data          0x00209125        0x0 C:\Users\Mihtop\Desktop\ECS\ECS\ide\..\hxdsp1042\newlib/libc_c.a(wctomb_r.o)
 .data          0x00209125        0x0 C:\Users\Mihtop\Desktop\ECS\ECS\ide\..\hxdsp1042\newlib/libm_c.a(sf_fabs.o)
 .data          0x00209125        0x0 C:\Users\Mihtop\Desktop\ECS\ECS\ide\..\hxdsp1042\newlib/libm_c.a(sf_fpclassify.o)
 .data          0x00209125        0x0 C:\Users\Mihtop\Desktop\ECS\ECS\ide\..\hxdsp1042\epos/libepos_c.a(_finit.o)
 .data          0x00209125        0x0 C:\Users\Mihtop\Desktop\ECS\ECS\ide\..\hxdsp1042\epos/libepos_c.a(main.o)
 .data          0x00209125        0x0 C:\Users\Mihtop\Desktop\ECS\ECS\ide\..\hxdsp1042\epos/libepos_c.a(unsupport_newlib.o)
 .data          0x00209125        0x0 C:\Users\Mihtop\Desktop\ECS\ECS\ide\..\hxdsp1042\epos/libepos_c.a(_free_r.o)
 .data          0x00209125        0x0 C:\Users\Mihtop\Desktop\ECS\ECS\ide\..\hxdsp1042\epos/libepos_c.a(_malloc_r.o)
 .data          0x00209125        0x0 C:\Users\Mihtop\Desktop\ECS\ECS\ide\..\hxdsp1042\epos/libepos_c.a(read.o)
 .data          0x00209125        0x0 C:\Users\Mihtop\Desktop\ECS\ECS\ide\..\hxdsp1042\epos/libepos_c.a(lseek.o)
 .data          0x00209125        0x0 C:\Users\Mihtop\Desktop\ECS\ECS\ide\..\hxdsp1042\epos/libepos_c.a(write.o)
 .data          0x00209125        0x0 C:\Users\Mihtop\Desktop\ECS\ECS\ide\..\hxdsp1042\epos/libepos_c.a(close.o)
 .data          0x00209125        0x0 C:\Users\Mihtop\Desktop\ECS\ECS\ide\..\hxdsp1042\epos/libepos_c.a(fstat.o)
 .data          0x00209125        0x0 C:\Users\Mihtop\Desktop\ECS\ECS\ide\..\hxdsp1042\epos/libepos_c.a(_isatty.o)
 .data          0x00209125        0x0 C:\Users\Mihtop\Desktop\ECS\ECS\ide\..\hxdsp1042\epos/libepos_c.a(_realloc_r.o)
 .data          0x00209125        0x0 C:\Users\Mihtop\Desktop\ECS\ECS\ide\..\hxdsp1042\epos/libepos_c.a(_calloc_r.o)
 .data          0x00209125        0x0 C:\Users\Mihtop\Desktop\ECS\ECS\ide\..\hxdsp1042\epos/libepos_c.a(bootcard.o)
 .data          0x00209125        0x0 C:\Users\Mihtop\Desktop\ECS\ECS\ide\..\hxdsp1042\epos/libepos_c.a(free.o)
 .data          0x00209125        0x0 C:\Users\Mihtop\Desktop\ECS\ECS\ide\..\hxdsp1042\epos/libepos_c.a(malloc.o)
 .data          0x00209125        0x0 C:\Users\Mihtop\Desktop\ECS\ECS\ide\..\hxdsp1042\epos/libepos_c.a(hostcomm.o)
 .data          0x00209125        0x0 C:\Users\Mihtop\Desktop\ECS\ECS\ide\..\hxdsp1042\epos/libepos_c.a(ferror.o)
 .data          0x00209125        0x0 C:\Users\Mihtop\Desktop\ECS\ECS\ide\..\hxdsp1042\epos/libepos_c.a(_eof.o)
 .data          0x00209125        0x0 C:\Users\Mihtop\Desktop\ECS\ECS\ide\..\hxdsp1042\epos/libepos_c.a(_tell.o)
 .data          0x00209125        0x0 C:\Users\Mihtop\Desktop\ECS\ECS\ide\..\hxdsp1042\epos/libepos_c.a(_realloc.o)
 .data          0x00209125        0x0 C:\Users\Mihtop\Desktop\ECS\ECS\ide\..\hxdsp1042\epos/libepos_c.a(_calloc.o)
 .data          0x00209125        0x0 C:\Users\Mihtop\Desktop\ECS\ECS\ide\..\hxdsp1042\epos/libepos_c.a(bsplibc.o)
 .data          0x00209125        0x0 C:\Users\Mihtop\Desktop\ECS\ECS\ide\..\hxdsp1042\epos/libepos_c.a(cpu_asm.o)
 .data          0x00209125        0x0 C:\Users\Mihtop\Desktop\ECS\ECS\ide\..\hxdsp1042\epos/libepos_c.a(bspgetworkarea.o)
 .data          0x00209125        0x0 C:\Users\Mihtop\Desktop\ECS\ECS\ide\..\hxdsp1042\epos/libepos_c.a(bspclean.o)
 .data          0x00209125        0x0 C:\Users\Mihtop\Desktop\ECS\ECS\ide\..\hxdsp1042\epos/libepos_c.a(exinit.o)
 .data          0x00209125        0x0 C:\Users\Mihtop\Desktop\ECS\ECS\ide\..\hxdsp1042\epos/libepos_c.a(bsppretaskinghook.o)
 .data          0x00209125        0x0 C:\Users\Mihtop\Desktop\ECS\ECS\ide\..\hxdsp1042\epos/libepos_c.a(bsppredriverhook.o)
 .data          0x00209125        0x0 C:\Users\Mihtop\Desktop\ECS\ECS\ide\..\hxdsp1042\epos/libepos_c.a(bsppost.o)
 .data          0x00209125        0x0 C:\Users\Mihtop\Desktop\ECS\ECS\ide\..\hxdsp1042\epos/libepos_c.a(sysstate_inl.o)
 .data          0x00209125        0x0 C:\Users\Mihtop\Desktop\ECS\ECS\ide\..\hxdsp1042\epos/libepos_c.a(malloc_deferred.o)
 .data          0x00209125        0x0 C:\Users\Mihtop\Desktop\ECS\ECS\ide\..\hxdsp1042\epos/libepos_c.a(pheapfree.o)
 .data          0x00209125        0x0 C:\Users\Mihtop\Desktop\ECS\ECS\ide\..\hxdsp1042\epos/libepos_c.a(malloc_initialize.o)
 .data          0x00209125        0x0 C:\Users\Mihtop\Desktop\ECS\ECS\ide\..\hxdsp1042\epos/libepos_c.a(protectedheap_inl.o)
 .data          0x00209125        0x0 C:\Users\Mihtop\Desktop\ECS\ECS\ide\..\hxdsp1042\epos/libepos_c.a(pheapgetblocksize.o)
 .data          0x00209125        0x0 C:\Users\Mihtop\Desktop\ECS\ECS\ide\..\hxdsp1042\epos/libepos_c.a(pheapresizeblock.o)
 .data          0x00209125        0x0 C:\Users\Mihtop\Desktop\ECS\ECS\ide\..\hxdsp1042\epos/libepos_c.a(wkspace.o)
 .data          0x00209125        0x0 C:\Users\Mihtop\Desktop\ECS\ECS\ide\..\hxdsp1042\epos/libepos_c.a(isr.o)
 .data          0x00209125        0x0 C:\Users\Mihtop\Desktop\ECS\ECS\ide\..\hxdsp1042\epos/libepos_c.a(ckinit.o)
 .data          0x00209125        0x0 C:\Users\Mihtop\Desktop\ECS\ECS\ide\..\hxdsp1042\epos/libepos_c.a(corechain_inl.o)
 .data          0x00209125        0x0 C:\Users\Mihtop\Desktop\ECS\ECS\ide\..\hxdsp1042\epos/libepos_c.a(heapfree.o)
 .data          0x00209125        0x0 C:\Users\Mihtop\Desktop\ECS\ECS\ide\..\hxdsp1042\epos/libepos_c.a(fatal.o)
 .data          0x00209125        0x0 C:\Users\Mihtop\Desktop\ECS\ECS\ide\..\hxdsp1042\epos/libepos_c.a(pheapgetsize.o)
 .data          0x00209125        0x0 C:\Users\Mihtop\Desktop\ECS\ECS\ide\..\hxdsp1042\epos/libepos_c.a(heap.o)
 .data          0x00209125        0x0 C:\Users\Mihtop\Desktop\ECS\ECS\ide\..\hxdsp1042\epos/libepos_c.a(pheapallocate.o)
 .data          0x00209125        0x0 C:\Users\Mihtop\Desktop\ECS\ECS\ide\..\hxdsp1042\epos/libepos_c.a(heapsizeofuserarea.o)
 .data          0x00209125        0x0 C:\Users\Mihtop\Desktop\ECS\ECS\ide\..\hxdsp1042\epos/libepos_c.a(heapresizeblock.o)
 .data          0x00209125        0x0 C:\Users\Mihtop\Desktop\ECS\ECS\ide\..\hxdsp1042\epos/libepos_c.a(interr.o)
 .data          0x00209125        0x0 C:\Users\Mihtop\Desktop\ECS\ECS\ide\..\hxdsp1042\epos/libepos_c.a(heap_inl.o)
 .data          0x00209125        0x0 C:\Users\Mihtop\Desktop\ECS\ECS\ide\..\hxdsp1042\epos/libepos_c.a(interruptc.o)
 .data          0x00209125        0x0 C:\Users\Mihtop\Desktop\ECS\ECS\ide\..\hxdsp1042\epos/libepos_c.a(intrdsp.o)
 .data          0x00209125        0x0 C:\Users\Mihtop\Desktop\ECS\ECS\ide\..\hxdsp1042\epos/libepos_c.a(clock.o)
 .data          0x00209125        0x0 C:\Users\Mihtop\Desktop\ECS\ECS\ide\..\hxdsp1042\epos/libepos_c.a(chaininsert.o)
 .data          0x00209125        0x0 C:\Users\Mihtop\Desktop\ECS\ECS\ide\..\hxdsp1042\epos/libepos_c.a(chainappend.o)
 .data          0x00209125        0x0 C:\Users\Mihtop\Desktop\ECS\ECS\ide\..\hxdsp1042\epos/libepos_c.a(chainget.o)
 .data          0x00209125        0x0 C:\Users\Mihtop\Desktop\ECS\ECS\ide\..\hxdsp1042\epos/libepos_c.a(heapallocate.o)
 .data          0x00209125        0x0 C:\Users\Mihtop\Desktop\ECS\ECS\ide\..\hxdsp1042\epos/libepos_c.a(_interruptc.o)
 .data          0x00209125        0x0 C:\Users\Mihtop\Desktop\ECS\ECS\ide\..\hxdsp1042\epos/libepos_c.a(_interrupt.o)
 .data          0x00209125        0x0 C:\Users\Mihtop\Desktop\ECS\ECS\ide\..\hxdsp1042\epos/libepos_c.a(start_interrupt.o)
 .data          0x00209125        0x0 C:\Users\Mihtop\Desktop\ECS\ECS\ide\..\hxdsp1042\epos/libepos_c.a(_intscr.o)
 .data          0x00209125        0x0 C:\Users\Mihtop\Desktop\ECS\ECS\ide\..\hxdsp1042\newlib/libc_c.a(errno.o)

.bss            0x00209125       0x74
                0x00209125                ____bss_start = .
 *(.bss)
 .bss           0x00209125        0x0 ./bw_cvabs_f.o
 .bss           0x00209125        0x0 ./bw_cvfft_f.o
 .bss           0x00209125        0x0 ./bw_cvifft_f.o
 .bss           0x00209125        0x0 ./complex_multi.o
 .bss           0x00209125        0x0 ./div_func.o
 .bss           0x00209125        0x0 ./get_coreid.o
 .bss           0x00209125       0x74 ./init.o
                0x00209140                __epos_malloc_dirty_helper
                0x0020913d                __b
                0x0020913b                __Core_ID
                0x0020913f                __epos_malloc_sbrk_helpers
                0x00209125                __EPOS_Malloc_Area
                0x00209141                __epos_unified_work_area
                0x0020913c                __a
                0x0020913e                __epos_malloc_statistics_helpers
 .bss           0x00209142        0x0 ./bsp/bspstart.o
                0x00209142                ____bss_end = .

.rodata         0x00209142      0x304
 *(.rodata)
 .rodata        0x00209142      0x2fc ./init.o
 .rodata        0x00209201        0x8 ./bsp/bspstart.o

.entry_point_sec
 *(.entry_point_sec)
                0x0105fffc                ____stack_start = 0x105fffc

.ccdata0
 *(.ccdata0)

.ccdata1        0x00418000     0x2800
 *(.ccdata1)
 .ccdata1       0x00418000     0x2800 ./init.o
                0x00418800                __outRealFFT
                0x00418400                __fuReal
                0x00418200                __fxImag
                0x00418000                __fxReal
                0x00418600                __outReal

.ccdata2
 *(.ccdata2)

.ccdata3
 *(.ccdata3)

.ccdata4
 *(.ccdata4)

.ccdata5
 *(.ccdata5)

.debug_info     0x00000000    0x5c2c1
 *(.debug_info)
 .debug_info    0x00000000      0x105 C:\Users\Mihtop\Desktop\ECS\ECS\ide\\..\hxdsp1042\newlib\crt0_c.o
 .debug_info    0x00000041       0x81 ./bw_cvabs_f.o
 .debug_info    0x00000061       0x81 ./bw_cvfft_f.o
 .debug_info    0x00000081       0x82 ./bw_cvifft_f.o
 .debug_info    0x000000a2       0x84 ./complex_multi.o
 .debug_info    0x000000c3       0x7f ./div_func.o
 .debug_info    0x000000e3       0x81 ./get_coreid.o
 .debug_info    0x00000103     0x22fc ./init.o
 .debug_info    0x000009c2     0x173c ./bsp/bspstart.o
 .debug_info    0x00000f91      0xd0a C:\Users\Mihtop\Desktop\ECS\ECS\ide\..\hxdsp1042\newlib/libc_c.a(printf.o)
 .debug_info    0x000012d3      0xafd C:\Users\Mihtop\Desktop\ECS\ECS\ide\..\hxdsp1042\newlib/libc_c.a(clock.o)
 .debug_info    0x00001593       0xe8 C:\Users\Mihtop\Desktop\ECS\ECS\ide\..\hxdsp1042\newlib/libc_c.a(int_div_precision.o)
 .debug_info    0x000015cd     0x18ad C:\Users\Mihtop\Desktop\ECS\ECS\ide\..\hxdsp1042\newlib/libc_c.a(vfprintf.o)
 .debug_info    0x00001bf8      0xa15 C:\Users\Mihtop\Desktop\ECS\ECS\ide\..\hxdsp1042\newlib/libc_c.a(impure.o)
 .debug_info    0x00001e7d      0xd74 C:\Users\Mihtop\Desktop\ECS\ECS\ide\..\hxdsp1042\newlib/libc_c.a(fflush.o)
 .debug_info    0x000021da     0x10a0 C:\Users\Mihtop\Desktop\ECS\ECS\ide\..\hxdsp1042\newlib/libc_c.a(locale.o)
 .debug_info    0x00002602      0xa90 C:\Users\Mihtop\Desktop\ECS\ECS\ide\..\hxdsp1042\newlib/libc_c.a(strlen.o)
 .debug_info    0x000028a6      0xde5 C:\Users\Mihtop\Desktop\ECS\ECS\ide\..\hxdsp1042\newlib/libc_c.a(findfp.o)
 .debug_info    0x00002c1f      0xc9d C:\Users\Mihtop\Desktop\ECS\ECS\ide\..\hxdsp1042\newlib/libc_c.a(wsetup.o)
 .debug_info    0x00002f47     0x139b C:\Users\Mihtop\Desktop\ECS\ECS\ide\..\hxdsp1042\newlib/libc_c.a(vfiprintf.o)
 .debug_info    0x0000342d      0xad0 C:\Users\Mihtop\Desktop\ECS\ECS\ide\..\hxdsp1042\newlib/libc_c.a(memchr.o)
 .debug_info    0x000036e1       0xe9 C:\Users\Mihtop\Desktop\ECS\ECS\ide\..\hxdsp1042\newlib/libc_c.a(uint_div_precision.o)
 .debug_info    0x0000371c      0xf2c C:\Users\Mihtop\Desktop\ECS\ECS\ide\..\hxdsp1042\newlib/libc_c.a(dtoa.o)
 .debug_info    0x00003ae7      0xd50 C:\Users\Mihtop\Desktop\ECS\ECS\ide\..\hxdsp1042\newlib/libc_c.a(fwalk.o)
 .debug_info    0x00003e3b      0xa77 C:\Users\Mihtop\Desktop\ECS\ECS\ide\..\hxdsp1042\newlib/libc_c.a(strcmp.o)
 .debug_info    0x000040d8      0xaa2 C:\Users\Mihtop\Desktop\ECS\ECS\ide\..\hxdsp1042\newlib/libc_c.a(memset.o)
 .debug_info    0x00004381      0xe96 C:\Users\Mihtop\Desktop\ECS\ECS\ide\..\hxdsp1042\newlib/libc_c.a(stdio.o)
 .debug_info    0x00004726      0xcc2 C:\Users\Mihtop\Desktop\ECS\ECS\ide\..\hxdsp1042\newlib/libc_c.a(fclose.o)
 .debug_info    0x00004a57      0xe09 C:\Users\Mihtop\Desktop\ECS\ECS\ide\..\hxdsp1042\newlib/libc_c.a(makebuf.o)
 .debug_info    0x00004dd9      0xda7 C:\Users\Mihtop\Desktop\ECS\ECS\ide\..\hxdsp1042\newlib/libc_c.a(fputwc.o)
 .debug_info    0x00005143      0xe09 C:\Users\Mihtop\Desktop\ECS\ECS\ide\..\hxdsp1042\newlib/libc_c.a(fvwrite.o)
 .debug_info    0x000054c5     0x162d C:\Users\Mihtop\Desktop\ECS\ECS\ide\..\hxdsp1042\newlib/libc_c.a(mprec.o)
 .debug_info    0x00005a50      0xad2 C:\Users\Mihtop\Desktop\ECS\ECS\ide\..\hxdsp1042\newlib/libc_c.a(memcpy.o)
 .debug_info    0x00005d05      0xb8f C:\Users\Mihtop\Desktop\ECS\ECS\ide\..\hxdsp1042\newlib/libc_c.a(wcrtomb.o)
 .debug_info    0x00005fe9      0xce5 C:\Users\Mihtop\Desktop\ECS\ECS\ide\..\hxdsp1042\newlib/libc_c.a(wbuf.o)
 .debug_info    0x00006322      0xacf C:\Users\Mihtop\Desktop\ECS\ECS\ide\..\hxdsp1042\newlib/libc_c.a(memmove.o)
 .debug_info    0x000065d6      0xbab C:\Users\Mihtop\Desktop\ECS\ECS\ide\..\hxdsp1042\newlib/libc_c.a(wctomb_r.o)
 .debug_info    0x000068c0      0xb87 C:\Users\Mihtop\Desktop\ECS\ECS\ide\..\hxdsp1042\newlib/libm_c.a(sf_fabs.o)
 .debug_info    0x00006ba2      0xb5c C:\Users\Mihtop\Desktop\ECS\ECS\ide\..\hxdsp1042\newlib/libm_c.a(sf_fpclassify.o)
 .debug_info    0x00006e79      0xa6d C:\Users\Mihtop\Desktop\ECS\ECS\ide\..\hxdsp1042\epos/libepos_c.a(_finit.o)
 .debug_info    0x00007114       0xf0 C:\Users\Mihtop\Desktop\ECS\ECS\ide\..\hxdsp1042\epos/libepos_c.a(main.o)
 .debug_info    0x00007150      0xbea C:\Users\Mihtop\Desktop\ECS\ECS\ide\..\hxdsp1042\epos/libepos_c.a(unsupport_newlib.o)
 .debug_info    0x0000744b     0x1698 C:\Users\Mihtop\Desktop\ECS\ECS\ide\..\hxdsp1042\epos/libepos_c.a(_free_r.o)
 .debug_info    0x000079f1     0x16a1 C:\Users\Mihtop\Desktop\ECS\ECS\ide\..\hxdsp1042\epos/libepos_c.a(_malloc_r.o)
 .debug_info    0x00007f99     0x1787 C:\Users\Mihtop\Desktop\ECS\ECS\ide\..\hxdsp1042\epos/libepos_c.a(read.o)
 .debug_info    0x0000857b     0x173e C:\Users\Mihtop\Desktop\ECS\ECS\ide\..\hxdsp1042\epos/libepos_c.a(lseek.o)
 .debug_info    0x00008b4a     0x178b C:\Users\Mihtop\Desktop\ECS\ECS\ide\..\hxdsp1042\epos/libepos_c.a(write.o)
 .debug_info    0x0000912d     0x16fd C:\Users\Mihtop\Desktop\ECS\ECS\ide\..\hxdsp1042\epos/libepos_c.a(close.o)
 .debug_info    0x000096ec     0x1874 C:\Users\Mihtop\Desktop\ECS\ECS\ide\..\hxdsp1042\epos/libepos_c.a(fstat.o)
 .debug_info    0x00009d09     0x1710 C:\Users\Mihtop\Desktop\ECS\ECS\ide\..\hxdsp1042\epos/libepos_c.a(_isatty.o)
 .debug_info    0x0000a2cd     0x16b1 C:\Users\Mihtop\Desktop\ECS\ECS\ide\..\hxdsp1042\epos/libepos_c.a(_realloc_r.o)
 .debug_info    0x0000a87a     0x16b4 C:\Users\Mihtop\Desktop\ECS\ECS\ide\..\hxdsp1042\epos/libepos_c.a(_calloc_r.o)
 .debug_info    0x0000ae27     0x1a11 C:\Users\Mihtop\Desktop\ECS\ECS\ide\..\hxdsp1042\epos/libepos_c.a(bootcard.o)
 .debug_info    0x0000b4ab     0x1bba C:\Users\Mihtop\Desktop\ECS\ECS\ide\..\hxdsp1042\epos/libepos_c.a(free.o)
 .debug_info    0x0000bb99     0x1c09 C:\Users\Mihtop\Desktop\ECS\ECS\ide\..\hxdsp1042\epos/libepos_c.a(malloc.o)
 .debug_info    0x0000c29c     0x17f2 C:\Users\Mihtop\Desktop\ECS\ECS\ide\..\hxdsp1042\epos/libepos_c.a(hostcomm.o)
 .debug_info    0x0000c898     0x16f0 C:\Users\Mihtop\Desktop\ECS\ECS\ide\..\hxdsp1042\epos/libepos_c.a(ferror.o)
 .debug_info    0x0000ce54     0x16a7 C:\Users\Mihtop\Desktop\ECS\ECS\ide\..\hxdsp1042\epos/libepos_c.a(_eof.o)
 .debug_info    0x0000d3fe     0x16cc C:\Users\Mihtop\Desktop\ECS\ECS\ide\..\hxdsp1042\epos/libepos_c.a(_tell.o)
 .debug_info    0x0000d9b1     0x1c4b C:\Users\Mihtop\Desktop\ECS\ECS\ide\..\hxdsp1042\epos/libepos_c.a(_realloc.o)
 .debug_info    0x0000e0c4     0x1c0c C:\Users\Mihtop\Desktop\ECS\ECS\ide\..\hxdsp1042\epos/libepos_c.a(_calloc.o)
 .debug_info    0x0000e7c7     0x16ed C:\Users\Mihtop\Desktop\ECS\ECS\ide\..\hxdsp1042\epos/libepos_c.a(bsplibc.o)
 .debug_info    0x0000ed82       0xf4 C:\Users\Mihtop\Desktop\ECS\ECS\ide\..\hxdsp1042\epos/libepos_c.a(cpu_asm.o)
 .debug_info    0x0000edbf     0x1772 C:\Users\Mihtop\Desktop\ECS\ECS\ide\..\hxdsp1042\epos/libepos_c.a(bspgetworkarea.o)
 .debug_info    0x0000f39b     0x16eb C:\Users\Mihtop\Desktop\ECS\ECS\ide\..\hxdsp1042\epos/libepos_c.a(bspclean.o)
 .debug_info    0x0000f956     0x1cc3 C:\Users\Mihtop\Desktop\ECS\ECS\ide\..\hxdsp1042\epos/libepos_c.a(exinit.o)
 .debug_info    0x00010087       0xc8 C:\Users\Mihtop\Desktop\ECS\ECS\ide\..\hxdsp1042\epos/libepos_c.a(bsppretaskinghook.o)
 .debug_info    0x000100b9       0xc6 C:\Users\Mihtop\Desktop\ECS\ECS\ide\..\hxdsp1042\epos/libepos_c.a(bsppredriverhook.o)
 .debug_info    0x000100ea     0x16ad C:\Users\Mihtop\Desktop\ECS\ECS\ide\..\hxdsp1042\epos/libepos_c.a(bsppost.o)
 .debug_info    0x00010696      0xb99 C:\Users\Mihtop\Desktop\ECS\ECS\ide\..\hxdsp1042\epos/libepos_c.a(sysstate_inl.o)
 .debug_info    0x0001097c     0x1cfc C:\Users\Mihtop\Desktop\ECS\ECS\ide\..\hxdsp1042\epos/libepos_c.a(malloc_deferred.o)
 .debug_info    0x000110bb      0xd21 C:\Users\Mihtop\Desktop\ECS\ECS\ide\..\hxdsp1042\epos/libepos_c.a(pheapfree.o)
 .debug_info    0x00011403     0x1d6e C:\Users\Mihtop\Desktop\ECS\ECS\ide\..\hxdsp1042\epos/libepos_c.a(malloc_initialize.o)
 .debug_info    0x00011b5f      0xded C:\Users\Mihtop\Desktop\ECS\ECS\ide\..\hxdsp1042\epos/libepos_c.a(protectedheap_inl.o)
 .debug_info    0x00011eda      0xd4c C:\Users\Mihtop\Desktop\ECS\ECS\ide\..\hxdsp1042\epos/libepos_c.a(pheapgetblocksize.o)
 .debug_info    0x0001222d      0xdef C:\Users\Mihtop\Desktop\ECS\ECS\ide\..\hxdsp1042\epos/libepos_c.a(pheapresizeblock.o)
 .debug_info    0x000125a9     0x1acb C:\Users\Mihtop\Desktop\ECS\ECS\ide\..\hxdsp1042\epos/libepos_c.a(wkspace.o)
 .debug_info    0x00012c5b     0x1937 C:\Users\Mihtop\Desktop\ECS\ECS\ide\..\hxdsp1042\epos/libepos_c.a(isr.o)
 .debug_info    0x000132a9     0x17ed C:\Users\Mihtop\Desktop\ECS\ECS\ide\..\hxdsp1042\epos/libepos_c.a(ckinit.o)
 .debug_info    0x000138a4     0x1461 C:\Users\Mihtop\Desktop\ECS\ECS\ide\..\hxdsp1042\epos/libepos_c.a(corechain_inl.o)
 .debug_info    0x00013dbd      0xed2 C:\Users\Mihtop\Desktop\ECS\ECS\ide\..\hxdsp1042\epos/libepos_c.a(heapfree.o)
 .debug_info    0x00014171      0xb97 C:\Users\Mihtop\Desktop\ECS\ECS\ide\..\hxdsp1042\epos/libepos_c.a(fatal.o)
 .debug_info    0x00014457      0xd02 C:\Users\Mihtop\Desktop\ECS\ECS\ide\..\hxdsp1042\epos/libepos_c.a(pheapgetsize.o)
 .debug_info    0x00014797     0x1399 C:\Users\Mihtop\Desktop\ECS\ECS\ide\..\hxdsp1042\epos/libepos_c.a(heap.o)
 .debug_info    0x00014c7e      0xd4b C:\Users\Mihtop\Desktop\ECS\ECS\ide\..\hxdsp1042\epos/libepos_c.a(pheapallocate.o)
 .debug_info    0x00014fd0      0xe6b C:\Users\Mihtop\Desktop\ECS\ECS\ide\..\hxdsp1042\epos/libepos_c.a(heapsizeofuserarea.o)
 .debug_info    0x0001536b     0x1048 C:\Users\Mihtop\Desktop\ECS\ECS\ide\..\hxdsp1042\epos/libepos_c.a(heapresizeblock.o)
 .debug_info    0x0001577d      0xc96 C:\Users\Mihtop\Desktop\ECS\ECS\ide\..\hxdsp1042\epos/libepos_c.a(interr.o)
 .debug_info    0x00015aa3     0x1443 C:\Users\Mihtop\Desktop\ECS\ECS\ide\..\hxdsp1042\epos/libepos_c.a(heap_inl.o)
 .debug_info    0x00015fb3       0xf7 C:\Users\Mihtop\Desktop\ECS\ECS\ide\..\hxdsp1042\epos/libepos_c.a(interruptc.o)
 .debug_info    0x00015ff1      0x17a C:\Users\Mihtop\Desktop\ECS\ECS\ide\..\hxdsp1042\epos/libepos_c.a(intrdsp.o)
 .debug_info    0x00016050      0x102 C:\Users\Mihtop\Desktop\ECS\ECS\ide\..\hxdsp1042\epos/libepos_c.a(clock.o)
 .debug_info    0x00016090      0xb48 C:\Users\Mihtop\Desktop\ECS\ECS\ide\..\hxdsp1042\epos/libepos_c.a(chaininsert.o)
 .debug_info    0x00016362      0xbbd C:\Users\Mihtop\Desktop\ECS\ECS\ide\..\hxdsp1042\epos/libepos_c.a(chainappend.o)
 .debug_info    0x00016651      0xbb2 C:\Users\Mihtop\Desktop\ECS\ECS\ide\..\hxdsp1042\epos/libepos_c.a(chainget.o)
 .debug_info    0x0001693e     0x106e C:\Users\Mihtop\Desktop\ECS\ECS\ide\..\hxdsp1042\epos/libepos_c.a(heapallocate.o)
 .debug_info    0x00016d59       0xf8 C:\Users\Mihtop\Desktop\ECS\ECS\ide\..\hxdsp1042\epos/libepos_c.a(_interruptc.o)
 .debug_info    0x00016d97       0xfc C:\Users\Mihtop\Desktop\ECS\ECS\ide\..\hxdsp1042\epos/libepos_c.a(start_interrupt.o)
 .debug_info    0x00016dd6       0xf4 C:\Users\Mihtop\Desktop\ECS\ECS\ide\..\hxdsp1042\epos/libepos_c.a(_intscr.o)
 .debug_info    0x00016e13      0xa72 C:\Users\Mihtop\Desktop\ECS\ECS\ide\..\hxdsp1042\newlib/libc_c.a(errno.o)

.debug_aranges  0x00000000      0xc60
 *(.debug_aranges)
 .debug_aranges
                0x00000000       0x20 C:\Users\Mihtop\Desktop\ECS\ECS\ide\\..\hxdsp1042\newlib\crt0_c.o
 .debug_aranges
                0x00000008       0x20 ./bw_cvabs_f.o
 .debug_aranges
                0x00000010       0x20 ./bw_cvfft_f.o
 .debug_aranges
                0x00000018       0x20 ./bw_cvifft_f.o
 .debug_aranges
                0x00000020       0x20 ./complex_multi.o
 .debug_aranges
                0x00000028       0x20 ./div_func.o
 .debug_aranges
                0x00000030       0x20 ./get_coreid.o
 .debug_aranges
                0x00000038       0x20 ./init.o
 .debug_aranges
                0x00000040       0x20 ./bsp/bspstart.o
 .debug_aranges
                0x00000048       0x20 C:\Users\Mihtop\Desktop\ECS\ECS\ide\..\hxdsp1042\newlib/libc_c.a(printf.o)
 .debug_aranges
                0x00000050       0x20 C:\Users\Mihtop\Desktop\ECS\ECS\ide\..\hxdsp1042\newlib/libc_c.a(clock.o)
 .debug_aranges
                0x00000058       0x20 C:\Users\Mihtop\Desktop\ECS\ECS\ide\..\hxdsp1042\newlib/libc_c.a(int_div_precision.o)
 .debug_aranges
                0x00000060       0x20 C:\Users\Mihtop\Desktop\ECS\ECS\ide\..\hxdsp1042\newlib/libc_c.a(vfprintf.o)
 .debug_aranges
                0x00000068       0x20 C:\Users\Mihtop\Desktop\ECS\ECS\ide\..\hxdsp1042\newlib/libc_c.a(fflush.o)
 .debug_aranges
                0x00000070       0x20 C:\Users\Mihtop\Desktop\ECS\ECS\ide\..\hxdsp1042\newlib/libc_c.a(locale.o)
 .debug_aranges
                0x00000078       0x20 C:\Users\Mihtop\Desktop\ECS\ECS\ide\..\hxdsp1042\newlib/libc_c.a(strlen.o)
 .debug_aranges
                0x00000080       0x20 C:\Users\Mihtop\Desktop\ECS\ECS\ide\..\hxdsp1042\newlib/libc_c.a(findfp.o)
 .debug_aranges
                0x00000088       0x20 C:\Users\Mihtop\Desktop\ECS\ECS\ide\..\hxdsp1042\newlib/libc_c.a(wsetup.o)
 .debug_aranges
                0x00000090       0x20 C:\Users\Mihtop\Desktop\ECS\ECS\ide\..\hxdsp1042\newlib/libc_c.a(vfiprintf.o)
 .debug_aranges
                0x00000098       0x20 C:\Users\Mihtop\Desktop\ECS\ECS\ide\..\hxdsp1042\newlib/libc_c.a(memchr.o)
 .debug_aranges
                0x000000a0       0x20 C:\Users\Mihtop\Desktop\ECS\ECS\ide\..\hxdsp1042\newlib/libc_c.a(uint_div_precision.o)
 .debug_aranges
                0x000000a8       0x20 C:\Users\Mihtop\Desktop\ECS\ECS\ide\..\hxdsp1042\newlib/libc_c.a(dtoa.o)
 .debug_aranges
                0x000000b0       0x20 C:\Users\Mihtop\Desktop\ECS\ECS\ide\..\hxdsp1042\newlib/libc_c.a(fwalk.o)
 .debug_aranges
                0x000000b8       0x20 C:\Users\Mihtop\Desktop\ECS\ECS\ide\..\hxdsp1042\newlib/libc_c.a(strcmp.o)
 .debug_aranges
                0x000000c0       0x20 C:\Users\Mihtop\Desktop\ECS\ECS\ide\..\hxdsp1042\newlib/libc_c.a(memset.o)
 .debug_aranges
                0x000000c8       0x20 C:\Users\Mihtop\Desktop\ECS\ECS\ide\..\hxdsp1042\newlib/libc_c.a(stdio.o)
 .debug_aranges
                0x000000d0       0x20 C:\Users\Mihtop\Desktop\ECS\ECS\ide\..\hxdsp1042\newlib/libc_c.a(fclose.o)
 .debug_aranges
                0x000000d8       0x20 C:\Users\Mihtop\Desktop\ECS\ECS\ide\..\hxdsp1042\newlib/libc_c.a(makebuf.o)
 .debug_aranges
                0x000000e0       0x20 C:\Users\Mihtop\Desktop\ECS\ECS\ide\..\hxdsp1042\newlib/libc_c.a(fputwc.o)
 .debug_aranges
                0x000000e8       0x20 C:\Users\Mihtop\Desktop\ECS\ECS\ide\..\hxdsp1042\newlib/libc_c.a(fvwrite.o)
 .debug_aranges
                0x000000f0       0x20 C:\Users\Mihtop\Desktop\ECS\ECS\ide\..\hxdsp1042\newlib/libc_c.a(mprec.o)
 .debug_aranges
                0x000000f8       0x20 C:\Users\Mihtop\Desktop\ECS\ECS\ide\..\hxdsp1042\newlib/libc_c.a(memcpy.o)
 .debug_aranges
                0x00000100       0x20 C:\Users\Mihtop\Desktop\ECS\ECS\ide\..\hxdsp1042\newlib/libc_c.a(wcrtomb.o)
 .debug_aranges
                0x00000108       0x20 C:\Users\Mihtop\Desktop\ECS\ECS\ide\..\hxdsp1042\newlib/libc_c.a(wbuf.o)
 .debug_aranges
                0x00000110       0x20 C:\Users\Mihtop\Desktop\ECS\ECS\ide\..\hxdsp1042\newlib/libc_c.a(memmove.o)
 .debug_aranges
                0x00000118       0x20 C:\Users\Mihtop\Desktop\ECS\ECS\ide\..\hxdsp1042\newlib/libc_c.a(wctomb_r.o)
 .debug_aranges
                0x00000120       0x20 C:\Users\Mihtop\Desktop\ECS\ECS\ide\..\hxdsp1042\newlib/libm_c.a(sf_fabs.o)
 .debug_aranges
                0x00000128       0x20 C:\Users\Mihtop\Desktop\ECS\ECS\ide\..\hxdsp1042\newlib/libm_c.a(sf_fpclassify.o)
 .debug_aranges
                0x00000130       0x20 C:\Users\Mihtop\Desktop\ECS\ECS\ide\..\hxdsp1042\epos/libepos_c.a(_finit.o)
 .debug_aranges
                0x00000138       0x20 C:\Users\Mihtop\Desktop\ECS\ECS\ide\..\hxdsp1042\epos/libepos_c.a(main.o)
 .debug_aranges
                0x00000140       0x20 C:\Users\Mihtop\Desktop\ECS\ECS\ide\..\hxdsp1042\epos/libepos_c.a(unsupport_newlib.o)
 .debug_aranges
                0x00000148       0x20 C:\Users\Mihtop\Desktop\ECS\ECS\ide\..\hxdsp1042\epos/libepos_c.a(_free_r.o)
 .debug_aranges
                0x00000150       0x20 C:\Users\Mihtop\Desktop\ECS\ECS\ide\..\hxdsp1042\epos/libepos_c.a(_malloc_r.o)
 .debug_aranges
                0x00000158       0x20 C:\Users\Mihtop\Desktop\ECS\ECS\ide\..\hxdsp1042\epos/libepos_c.a(read.o)
 .debug_aranges
                0x00000160       0x20 C:\Users\Mihtop\Desktop\ECS\ECS\ide\..\hxdsp1042\epos/libepos_c.a(lseek.o)
 .debug_aranges
                0x00000168       0x20 C:\Users\Mihtop\Desktop\ECS\ECS\ide\..\hxdsp1042\epos/libepos_c.a(write.o)
 .debug_aranges
                0x00000170       0x20 C:\Users\Mihtop\Desktop\ECS\ECS\ide\..\hxdsp1042\epos/libepos_c.a(close.o)
 .debug_aranges
                0x00000178       0x20 C:\Users\Mihtop\Desktop\ECS\ECS\ide\..\hxdsp1042\epos/libepos_c.a(fstat.o)
 .debug_aranges
                0x00000180       0x20 C:\Users\Mihtop\Desktop\ECS\ECS\ide\..\hxdsp1042\epos/libepos_c.a(_isatty.o)
 .debug_aranges
                0x00000188       0x20 C:\Users\Mihtop\Desktop\ECS\ECS\ide\..\hxdsp1042\epos/libepos_c.a(_realloc_r.o)
 .debug_aranges
                0x00000190       0x20 C:\Users\Mihtop\Desktop\ECS\ECS\ide\..\hxdsp1042\epos/libepos_c.a(_calloc_r.o)
 .debug_aranges
                0x00000198       0x20 C:\Users\Mihtop\Desktop\ECS\ECS\ide\..\hxdsp1042\epos/libepos_c.a(bootcard.o)
 .debug_aranges
                0x000001a0       0x20 C:\Users\Mihtop\Desktop\ECS\ECS\ide\..\hxdsp1042\epos/libepos_c.a(free.o)
 .debug_aranges
                0x000001a8       0x20 C:\Users\Mihtop\Desktop\ECS\ECS\ide\..\hxdsp1042\epos/libepos_c.a(malloc.o)
 .debug_aranges
                0x000001b0       0x20 C:\Users\Mihtop\Desktop\ECS\ECS\ide\..\hxdsp1042\epos/libepos_c.a(hostcomm.o)
 .debug_aranges
                0x000001b8       0x20 C:\Users\Mihtop\Desktop\ECS\ECS\ide\..\hxdsp1042\epos/libepos_c.a(ferror.o)
 .debug_aranges
                0x000001c0       0x20 C:\Users\Mihtop\Desktop\ECS\ECS\ide\..\hxdsp1042\epos/libepos_c.a(_eof.o)
 .debug_aranges
                0x000001c8       0x20 C:\Users\Mihtop\Desktop\ECS\ECS\ide\..\hxdsp1042\epos/libepos_c.a(_tell.o)
 .debug_aranges
                0x000001d0       0x20 C:\Users\Mihtop\Desktop\ECS\ECS\ide\..\hxdsp1042\epos/libepos_c.a(_realloc.o)
 .debug_aranges
                0x000001d8       0x20 C:\Users\Mihtop\Desktop\ECS\ECS\ide\..\hxdsp1042\epos/libepos_c.a(_calloc.o)
 .debug_aranges
                0x000001e0       0x20 C:\Users\Mihtop\Desktop\ECS\ECS\ide\..\hxdsp1042\epos/libepos_c.a(bsplibc.o)
 .debug_aranges
                0x000001e8       0x20 C:\Users\Mihtop\Desktop\ECS\ECS\ide\..\hxdsp1042\epos/libepos_c.a(cpu_asm.o)
 .debug_aranges
                0x000001f0       0x20 C:\Users\Mihtop\Desktop\ECS\ECS\ide\..\hxdsp1042\epos/libepos_c.a(bspgetworkarea.o)
 .debug_aranges
                0x000001f8       0x20 C:\Users\Mihtop\Desktop\ECS\ECS\ide\..\hxdsp1042\epos/libepos_c.a(bspclean.o)
 .debug_aranges
                0x00000200       0x20 C:\Users\Mihtop\Desktop\ECS\ECS\ide\..\hxdsp1042\epos/libepos_c.a(exinit.o)
 .debug_aranges
                0x00000208       0x20 C:\Users\Mihtop\Desktop\ECS\ECS\ide\..\hxdsp1042\epos/libepos_c.a(bsppretaskinghook.o)
 .debug_aranges
                0x00000210       0x20 C:\Users\Mihtop\Desktop\ECS\ECS\ide\..\hxdsp1042\epos/libepos_c.a(bsppredriverhook.o)
 .debug_aranges
                0x00000218       0x20 C:\Users\Mihtop\Desktop\ECS\ECS\ide\..\hxdsp1042\epos/libepos_c.a(bsppost.o)
 .debug_aranges
                0x00000220       0x20 C:\Users\Mihtop\Desktop\ECS\ECS\ide\..\hxdsp1042\epos/libepos_c.a(sysstate_inl.o)
 .debug_aranges
                0x00000228       0x20 C:\Users\Mihtop\Desktop\ECS\ECS\ide\..\hxdsp1042\epos/libepos_c.a(malloc_deferred.o)
 .debug_aranges
                0x00000230       0x20 C:\Users\Mihtop\Desktop\ECS\ECS\ide\..\hxdsp1042\epos/libepos_c.a(pheapfree.o)
 .debug_aranges
                0x00000238       0x20 C:\Users\Mihtop\Desktop\ECS\ECS\ide\..\hxdsp1042\epos/libepos_c.a(malloc_initialize.o)
 .debug_aranges
                0x00000240       0x20 C:\Users\Mihtop\Desktop\ECS\ECS\ide\..\hxdsp1042\epos/libepos_c.a(protectedheap_inl.o)
 .debug_aranges
                0x00000248       0x20 C:\Users\Mihtop\Desktop\ECS\ECS\ide\..\hxdsp1042\epos/libepos_c.a(pheapgetblocksize.o)
 .debug_aranges
                0x00000250       0x20 C:\Users\Mihtop\Desktop\ECS\ECS\ide\..\hxdsp1042\epos/libepos_c.a(pheapresizeblock.o)
 .debug_aranges
                0x00000258       0x20 C:\Users\Mihtop\Desktop\ECS\ECS\ide\..\hxdsp1042\epos/libepos_c.a(wkspace.o)
 .debug_aranges
                0x00000260       0x20 C:\Users\Mihtop\Desktop\ECS\ECS\ide\..\hxdsp1042\epos/libepos_c.a(isr.o)
 .debug_aranges
                0x00000268       0x20 C:\Users\Mihtop\Desktop\ECS\ECS\ide\..\hxdsp1042\epos/libepos_c.a(ckinit.o)
 .debug_aranges
                0x00000270       0x20 C:\Users\Mihtop\Desktop\ECS\ECS\ide\..\hxdsp1042\epos/libepos_c.a(corechain_inl.o)
 .debug_aranges
                0x00000278       0x20 C:\Users\Mihtop\Desktop\ECS\ECS\ide\..\hxdsp1042\epos/libepos_c.a(heapfree.o)
 .debug_aranges
                0x00000280       0x20 C:\Users\Mihtop\Desktop\ECS\ECS\ide\..\hxdsp1042\epos/libepos_c.a(fatal.o)
 .debug_aranges
                0x00000288       0x20 C:\Users\Mihtop\Desktop\ECS\ECS\ide\..\hxdsp1042\epos/libepos_c.a(pheapgetsize.o)
 .debug_aranges
                0x00000290       0x20 C:\Users\Mihtop\Desktop\ECS\ECS\ide\..\hxdsp1042\epos/libepos_c.a(heap.o)
 .debug_aranges
                0x00000298       0x20 C:\Users\Mihtop\Desktop\ECS\ECS\ide\..\hxdsp1042\epos/libepos_c.a(pheapallocate.o)
 .debug_aranges
                0x000002a0       0x20 C:\Users\Mihtop\Desktop\ECS\ECS\ide\..\hxdsp1042\epos/libepos_c.a(heapsizeofuserarea.o)
 .debug_aranges
                0x000002a8       0x20 C:\Users\Mihtop\Desktop\ECS\ECS\ide\..\hxdsp1042\epos/libepos_c.a(heapresizeblock.o)
 .debug_aranges
                0x000002b0       0x20 C:\Users\Mihtop\Desktop\ECS\ECS\ide\..\hxdsp1042\epos/libepos_c.a(interr.o)
 .debug_aranges
                0x000002b8       0x20 C:\Users\Mihtop\Desktop\ECS\ECS\ide\..\hxdsp1042\epos/libepos_c.a(heap_inl.o)
 .debug_aranges
                0x000002c0       0x20 C:\Users\Mihtop\Desktop\ECS\ECS\ide\..\hxdsp1042\epos/libepos_c.a(interruptc.o)
 .debug_aranges
                0x000002c8       0x20 C:\Users\Mihtop\Desktop\ECS\ECS\ide\..\hxdsp1042\epos/libepos_c.a(intrdsp.o)
 .debug_aranges
                0x000002d0       0x20 C:\Users\Mihtop\Desktop\ECS\ECS\ide\..\hxdsp1042\epos/libepos_c.a(clock.o)
 .debug_aranges
                0x000002d8       0x20 C:\Users\Mihtop\Desktop\ECS\ECS\ide\..\hxdsp1042\epos/libepos_c.a(chaininsert.o)
 .debug_aranges
                0x000002e0       0x20 C:\Users\Mihtop\Desktop\ECS\ECS\ide\..\hxdsp1042\epos/libepos_c.a(chainappend.o)
 .debug_aranges
                0x000002e8       0x20 C:\Users\Mihtop\Desktop\ECS\ECS\ide\..\hxdsp1042\epos/libepos_c.a(chainget.o)
 .debug_aranges
                0x000002f0       0x20 C:\Users\Mihtop\Desktop\ECS\ECS\ide\..\hxdsp1042\epos/libepos_c.a(heapallocate.o)
 .debug_aranges
                0x000002f8       0x20 C:\Users\Mihtop\Desktop\ECS\ECS\ide\..\hxdsp1042\epos/libepos_c.a(_interruptc.o)
 .debug_aranges
                0x00000300       0x20 C:\Users\Mihtop\Desktop\ECS\ECS\ide\..\hxdsp1042\epos/libepos_c.a(start_interrupt.o)
 .debug_aranges
                0x00000308       0x20 C:\Users\Mihtop\Desktop\ECS\ECS\ide\..\hxdsp1042\epos/libepos_c.a(_intscr.o)
 .debug_aranges
                0x00000310       0x20 C:\Users\Mihtop\Desktop\ECS\ECS\ide\..\hxdsp1042\newlib/libc_c.a(errno.o)

.debug_pubnames
                0x00000000     0x1947
 *(.debug_pubnames)
 .debug_pubnames
                0x00000000      0x1b0 ./init.o
 .debug_pubnames
                0x0000006c       0x20 ./bsp/bspstart.o
 .debug_pubnames
                0x00000074       0x2b C:\Users\Mihtop\Desktop\ECS\ECS\ide\..\hxdsp1042\newlib/libc_c.a(printf.o)
 .debug_pubnames
                0x0000007e       0x1c C:\Users\Mihtop\Desktop\ECS\ECS\ide\..\hxdsp1042\newlib/libc_c.a(clock.o)
 .debug_pubnames
                0x00000085       0x2f C:\Users\Mihtop\Desktop\ECS\ECS\ide\..\hxdsp1042\newlib/libc_c.a(vfprintf.o)
 .debug_pubnames
                0x00000091       0x39 C:\Users\Mihtop\Desktop\ECS\ECS\ide\..\hxdsp1042\newlib/libc_c.a(impure.o)
 .debug_pubnames
                0x0000009f       0x3a C:\Users\Mihtop\Desktop\ECS\ECS\ide\..\hxdsp1042\newlib/libc_c.a(fflush.o)
 .debug_pubnames
                0x000000ae       0xfa C:\Users\Mihtop\Desktop\ECS\ECS\ide\..\hxdsp1042\newlib/libc_c.a(locale.o)
 .debug_pubnames
                0x000000ec       0x1d C:\Users\Mihtop\Desktop\ECS\ECS\ide\..\hxdsp1042\newlib/libc_c.a(strlen.o)
 .debug_pubnames
                0x000000f4       0x55 C:\Users\Mihtop\Desktop\ECS\ECS\ide\..\hxdsp1042\newlib/libc_c.a(findfp.o)
 .debug_pubnames
                0x00000109       0x22 C:\Users\Mihtop\Desktop\ECS\ECS\ide\..\hxdsp1042\newlib/libc_c.a(wsetup.o)
 .debug_pubnames
                0x00000111       0x40 C:\Users\Mihtop\Desktop\ECS\ECS\ide\..\hxdsp1042\newlib/libc_c.a(vfiprintf.o)
 .debug_pubnames
                0x00000121       0x1d C:\Users\Mihtop\Desktop\ECS\ECS\ide\..\hxdsp1042\newlib/libc_c.a(memchr.o)
 .debug_pubnames
                0x00000129       0x1e C:\Users\Mihtop\Desktop\ECS\ECS\ide\..\hxdsp1042\newlib/libc_c.a(dtoa.o)
 .debug_pubnames
                0x00000130       0x2e C:\Users\Mihtop\Desktop\ECS\ECS\ide\..\hxdsp1042\newlib/libc_c.a(fwalk.o)
 .debug_pubnames
                0x0000013c       0x1d C:\Users\Mihtop\Desktop\ECS\ECS\ide\..\hxdsp1042\newlib/libc_c.a(strcmp.o)
 .debug_pubnames
                0x00000143       0x1d C:\Users\Mihtop\Desktop\ECS\ECS\ide\..\hxdsp1042\newlib/libc_c.a(memset.o)
 .debug_pubnames
                0x0000014a       0x53 C:\Users\Mihtop\Desktop\ECS\ECS\ide\..\hxdsp1042\newlib/libc_c.a(stdio.o)
 .debug_pubnames
                0x0000015f       0x2b C:\Users\Mihtop\Desktop\ECS\ECS\ide\..\hxdsp1042\newlib/libc_c.a(fclose.o)
 .debug_pubnames
                0x0000016a       0x23 C:\Users\Mihtop\Desktop\ECS\ECS\ide\..\hxdsp1042\newlib/libc_c.a(makebuf.o)
 .debug_pubnames
                0x00000172       0x2b C:\Users\Mihtop\Desktop\ECS\ECS\ide\..\hxdsp1042\newlib/libc_c.a(fputwc.o)
 .debug_pubnames
                0x0000017d       0x23 C:\Users\Mihtop\Desktop\ECS\ECS\ide\..\hxdsp1042\newlib/libc_c.a(fvwrite.o)
 .debug_pubnames
                0x00000186      0x13a C:\Users\Mihtop\Desktop\ECS\ECS\ide\..\hxdsp1042\newlib/libc_c.a(mprec.o)
 .debug_pubnames
                0x000001d4       0x1d C:\Users\Mihtop\Desktop\ECS\ECS\ide\..\hxdsp1042\newlib/libc_c.a(memcpy.o)
 .debug_pubnames
                0x000001dc       0x2d C:\Users\Mihtop\Desktop\ECS\ECS\ide\..\hxdsp1042\newlib/libc_c.a(wcrtomb.o)
 .debug_pubnames
                0x000001e7       0x2c C:\Users\Mihtop\Desktop\ECS\ECS\ide\..\hxdsp1042\newlib/libc_c.a(wbuf.o)
 .debug_pubnames
                0x000001f2       0x1e C:\Users\Mihtop\Desktop\ECS\ECS\ide\..\hxdsp1042\newlib/libc_c.a(memmove.o)
 .debug_pubnames
                0x000001f9       0x40 C:\Users\Mihtop\Desktop\ECS\ECS\ide\..\hxdsp1042\newlib/libc_c.a(wctomb_r.o)
 .debug_pubnames
                0x00000209       0x25 C:\Users\Mihtop\Desktop\ECS\ECS\ide\..\hxdsp1042\newlib/libm_c.a(sf_fabs.o)
 .debug_pubnames
                0x00000213       0x24 C:\Users\Mihtop\Desktop\ECS\ECS\ide\..\hxdsp1042\newlib/libm_c.a(sf_fpclassify.o)
 .debug_pubnames
                0x0000021c       0x1d C:\Users\Mihtop\Desktop\ECS\ECS\ide\..\hxdsp1042\epos/libepos_c.a(_finit.o)
 .debug_pubnames
                0x00000223       0x1e C:\Users\Mihtop\Desktop\ECS\ECS\ide\..\hxdsp1042\epos/libepos_c.a(main.o)
 .debug_pubnames
                0x0000022a       0x4a C:\Users\Mihtop\Desktop\ECS\ECS\ide\..\hxdsp1042\epos/libepos_c.a(unsupport_newlib.o)
 .debug_pubnames
                0x0000023d       0x1e C:\Users\Mihtop\Desktop\ECS\ECS\ide\..\hxdsp1042\epos/libepos_c.a(_free_r.o)
 .debug_pubnames
                0x00000244       0x20 C:\Users\Mihtop\Desktop\ECS\ECS\ide\..\hxdsp1042\epos/libepos_c.a(_malloc_r.o)
 .debug_pubnames
                0x0000024c       0x28 C:\Users\Mihtop\Desktop\ECS\ECS\ide\..\hxdsp1042\epos/libepos_c.a(read.o)
 .debug_pubnames
                0x00000256       0x2a C:\Users\Mihtop\Desktop\ECS\ECS\ide\..\hxdsp1042\epos/libepos_c.a(lseek.o)
 .debug_pubnames
                0x00000261       0x2a C:\Users\Mihtop\Desktop\ECS\ECS\ide\..\hxdsp1042\epos/libepos_c.a(write.o)
 .debug_pubnames
                0x0000026b       0x2a C:\Users\Mihtop\Desktop\ECS\ECS\ide\..\hxdsp1042\epos/libepos_c.a(close.o)
 .debug_pubnames
                0x00000276       0x2a C:\Users\Mihtop\Desktop\ECS\ECS\ide\..\hxdsp1042\epos/libepos_c.a(fstat.o)
 .debug_pubnames
                0x00000280       0x2c C:\Users\Mihtop\Desktop\ECS\ECS\ide\..\hxdsp1042\epos/libepos_c.a(_isatty.o)
 .debug_pubnames
                0x0000028b       0x21 C:\Users\Mihtop\Desktop\ECS\ECS\ide\..\hxdsp1042\epos/libepos_c.a(_realloc_r.o)
 .debug_pubnames
                0x00000294       0x20 C:\Users\Mihtop\Desktop\ECS\ECS\ide\..\hxdsp1042\epos/libepos_c.a(_calloc_r.o)
 .debug_pubnames
                0x0000029c       0x34 C:\Users\Mihtop\Desktop\ECS\ECS\ide\..\hxdsp1042\epos/libepos_c.a(bootcard.o)
 .debug_pubnames
                0x000002a9       0x1b C:\Users\Mihtop\Desktop\ECS\ECS\ide\..\hxdsp1042\epos/libepos_c.a(free.o)
 .debug_pubnames
                0x000002af       0x1d C:\Users\Mihtop\Desktop\ECS\ECS\ide\..\hxdsp1042\epos/libepos_c.a(malloc.o)
 .debug_pubnames
                0x000002b7       0x88 C:\Users\Mihtop\Desktop\ECS\ECS\ide\..\hxdsp1042\epos/libepos_c.a(hostcomm.o)
 .debug_pubnames
                0x000002d9       0x1e C:\Users\Mihtop\Desktop\ECS\ECS\ide\..\hxdsp1042\epos/libepos_c.a(ferror.o)
 .debug_pubnames
                0x000002e0       0x1b C:\Users\Mihtop\Desktop\ECS\ECS\ide\..\hxdsp1042\epos/libepos_c.a(_eof.o)
 .debug_pubnames
                0x000002e7       0x1c C:\Users\Mihtop\Desktop\ECS\ECS\ide\..\hxdsp1042\epos/libepos_c.a(_tell.o)
 .debug_pubnames
                0x000002ee       0x1f C:\Users\Mihtop\Desktop\ECS\ECS\ide\..\hxdsp1042\epos/libepos_c.a(_realloc.o)
 .debug_pubnames
                0x000002f6       0x1e C:\Users\Mihtop\Desktop\ECS\ECS\ide\..\hxdsp1042\epos/libepos_c.a(_calloc.o)
 .debug_pubnames
                0x000002fd       0x24 C:\Users\Mihtop\Desktop\ECS\ECS\ide\..\hxdsp1042\epos/libepos_c.a(bsplibc.o)
 .debug_pubnames
                0x00000306       0x28 C:\Users\Mihtop\Desktop\ECS\ECS\ide\..\hxdsp1042\epos/libepos_c.a(bspgetworkarea.o)
 .debug_pubnames
                0x00000310       0x22 C:\Users\Mihtop\Desktop\ECS\ECS\ide\..\hxdsp1042\epos/libepos_c.a(bspclean.o)
 .debug_pubnames
                0x00000319      0x16a C:\Users\Mihtop\Desktop\ECS\ECS\ide\..\hxdsp1042\epos/libepos_c.a(exinit.o)
 .debug_pubnames
                0x00000373       0x2a C:\Users\Mihtop\Desktop\ECS\ECS\ide\..\hxdsp1042\epos/libepos_c.a(bsppretaskinghook.o)
 .debug_pubnames
                0x0000037e       0x29 C:\Users\Mihtop\Desktop\ECS\ECS\ide\..\hxdsp1042\epos/libepos_c.a(bsppredriverhook.o)
 .debug_pubnames
                0x00000388       0x2a C:\Users\Mihtop\Desktop\ECS\ECS\ide\..\hxdsp1042\epos/libepos_c.a(bsppost.o)
 .debug_pubnames
                0x00000392       0x56 C:\Users\Mihtop\Desktop\ECS\ECS\ide\..\hxdsp1042\epos/libepos_c.a(sysstate_inl.o)
 .debug_pubnames
                0x000003a8       0xa8 C:\Users\Mihtop\Desktop\ECS\ECS\ide\..\hxdsp1042\epos/libepos_c.a(malloc_deferred.o)
 .debug_pubnames
                0x000003d2       0x2b C:\Users\Mihtop\Desktop\ECS\ECS\ide\..\hxdsp1042\epos/libepos_c.a(pheapfree.o)
 .debug_pubnames
                0x000003dd       0x48 C:\Users\Mihtop\Desktop\ECS\ECS\ide\..\hxdsp1042\epos/libepos_c.a(malloc_initialize.o)
 .debug_pubnames
                0x000003ef       0x73 C:\Users\Mihtop\Desktop\ECS\ECS\ide\..\hxdsp1042\epos/libepos_c.a(protectedheap_inl.o)
 .debug_pubnames
                0x0000040b       0x35 C:\Users\Mihtop\Desktop\ECS\ECS\ide\..\hxdsp1042\epos/libepos_c.a(pheapgetblocksize.o)
 .debug_pubnames
                0x00000419       0x33 C:\Users\Mihtop\Desktop\ECS\ECS\ide\..\hxdsp1042\epos/libepos_c.a(pheapresizeblock.o)
 .debug_pubnames
                0x00000425       0x8b C:\Users\Mihtop\Desktop\ECS\ECS\ide\..\hxdsp1042\epos/libepos_c.a(wkspace.o)
 .debug_pubnames
                0x00000448       0x32 C:\Users\Mihtop\Desktop\ECS\ECS\ide\..\hxdsp1042\epos/libepos_c.a(isr.o)
 .debug_pubnames
                0x00000455       0x5b C:\Users\Mihtop\Desktop\ECS\ECS\ide\..\hxdsp1042\epos/libepos_c.a(ckinit.o)
 .debug_pubnames
                0x0000046b      0x29f C:\Users\Mihtop\Desktop\ECS\ECS\ide\..\hxdsp1042\epos/libepos_c.a(corechain_inl.o)
 .debug_pubnames
                0x00000513       0x21 C:\Users\Mihtop\Desktop\ECS\ECS\ide\..\hxdsp1042\epos/libepos_c.a(heapfree.o)
 .debug_pubnames
                0x0000051b       0x30 C:\Users\Mihtop\Desktop\ECS\ECS\ide\..\hxdsp1042\epos/libepos_c.a(fatal.o)
 .debug_pubnames
                0x00000527       0x2f C:\Users\Mihtop\Desktop\ECS\ECS\ide\..\hxdsp1042\epos/libepos_c.a(pheapgetsize.o)
 .debug_pubnames
                0x00000533       0x56 C:\Users\Mihtop\Desktop\ECS\ECS\ide\..\hxdsp1042\epos/libepos_c.a(heap.o)
 .debug_pubnames
                0x00000549       0x45 C:\Users\Mihtop\Desktop\ECS\ECS\ide\..\hxdsp1042\epos/libepos_c.a(pheapallocate.o)
 .debug_pubnames
                0x0000055a       0x2f C:\Users\Mihtop\Desktop\ECS\ECS\ide\..\hxdsp1042\epos/libepos_c.a(heapsizeofuserarea.o)
 .debug_pubnames
                0x00000566       0x29 C:\Users\Mihtop\Desktop\ECS\ECS\ide\..\hxdsp1042\epos/libepos_c.a(heapresizeblock.o)
 .debug_pubnames
                0x00000570       0x2f C:\Users\Mihtop\Desktop\ECS\ECS\ide\..\hxdsp1042\epos/libepos_c.a(interr.o)
 .debug_pubnames
                0x0000057c      0x251 C:\Users\Mihtop\Desktop\ECS\ECS\ide\..\hxdsp1042\epos/libepos_c.a(heap_inl.o)
 .debug_pubnames
                0x00000610       0x44 C:\Users\Mihtop\Desktop\ECS\ECS\ide\..\hxdsp1042\epos/libepos_c.a(intrdsp.o)
 .debug_pubnames
                0x00000621       0x24 C:\Users\Mihtop\Desktop\ECS\ECS\ide\..\hxdsp1042\epos/libepos_c.a(chaininsert.o)
 .debug_pubnames
                0x0000062a       0x24 C:\Users\Mihtop\Desktop\ECS\ECS\ide\..\hxdsp1042\epos/libepos_c.a(chainappend.o)
 .debug_pubnames
                0x00000633       0x21 C:\Users\Mihtop\Desktop\ECS\ECS\ide\..\hxdsp1042\epos/libepos_c.a(chainget.o)
 .debug_pubnames
                0x0000063b       0x3b C:\Users\Mihtop\Desktop\ECS\ECS\ide\..\hxdsp1042\epos/libepos_c.a(heapallocate.o)
 .debug_pubnames
                0x0000064a       0x1e C:\Users\Mihtop\Desktop\ECS\ECS\ide\..\hxdsp1042\newlib/libc_c.a(errno.o)

.debug_line     0x00000000     0x6250
 *(.debug_line)
 .debug_line    0x00000000       0xf3 C:\Users\Mihtop\Desktop\ECS\ECS\ide\\..\hxdsp1042\newlib\crt0_c.o
 .debug_line    0x0000003c      0x110 ./bw_cvabs_f.o
 .debug_line    0x00000080      0x329 ./bw_cvfft_f.o
 .debug_line    0x0000014b      0x272 ./bw_cvifft_f.o
 .debug_line    0x000001e7       0xb6 ./complex_multi.o
 .debug_line    0x00000215       0xa5 ./div_func.o
 .debug_line    0x0000023e       0x9b ./get_coreid.o
 .debug_line    0x00000265      0x143 ./init.o
 .debug_line    0x000002b5       0x4d ./bsp/bspstart.o
 .debug_line    0x000002c9       0x9d C:\Users\Mihtop\Desktop\ECS\ECS\ide\..\hxdsp1042\newlib/libc_c.a(printf.o)
 .debug_line    0x000002f0       0x92 C:\Users\Mihtop\Desktop\ECS\ECS\ide\..\hxdsp1042\newlib/libc_c.a(clock.o)
 .debug_line    0x00000314       0xc5 C:\Users\Mihtop\Desktop\ECS\ECS\ide\..\hxdsp1042\newlib/libc_c.a(int_div_precision.o)
 .debug_line    0x00000346      0x4eb C:\Users\Mihtop\Desktop\ECS\ECS\ide\..\hxdsp1042\newlib/libc_c.a(vfprintf.o)
 .debug_line    0x00000480       0x7d C:\Users\Mihtop\Desktop\ECS\ECS\ide\..\hxdsp1042\newlib/libc_c.a(impure.o)
 .debug_line    0x000004a0      0x140 C:\Users\Mihtop\Desktop\ECS\ECS\ide\..\hxdsp1042\newlib/libc_c.a(fflush.o)
 .debug_line    0x000004f0       0xc8 C:\Users\Mihtop\Desktop\ECS\ECS\ide\..\hxdsp1042\newlib/libc_c.a(locale.o)
 .debug_line    0x00000522       0x9c C:\Users\Mihtop\Desktop\ECS\ECS\ide\..\hxdsp1042\newlib/libc_c.a(strlen.o)
 .debug_line    0x00000549      0x14a C:\Users\Mihtop\Desktop\ECS\ECS\ide\..\hxdsp1042\newlib/libc_c.a(findfp.o)
 .debug_line    0x0000059b       0xd2 C:\Users\Mihtop\Desktop\ECS\ECS\ide\..\hxdsp1042\newlib/libc_c.a(wsetup.o)
 .debug_line    0x000005d0      0x34a C:\Users\Mihtop\Desktop\ECS\ECS\ide\..\hxdsp1042\newlib/libc_c.a(vfiprintf.o)
 .debug_line    0x000006a2       0xa4 C:\Users\Mihtop\Desktop\ECS\ECS\ide\..\hxdsp1042\newlib/libc_c.a(memchr.o)
 .debug_line    0x000006cb       0xb3 C:\Users\Mihtop\Desktop\ECS\ECS\ide\..\hxdsp1042\newlib/libc_c.a(uint_div_precision.o)
 .debug_line    0x000006f8      0x45d C:\Users\Mihtop\Desktop\ECS\ECS\ide\..\hxdsp1042\newlib/libc_c.a(dtoa.o)
 .debug_line    0x0000080f       0xd6 C:\Users\Mihtop\Desktop\ECS\ECS\ide\..\hxdsp1042\newlib/libc_c.a(fwalk.o)
 .debug_line    0x00000845       0x99 C:\Users\Mihtop\Desktop\ECS\ECS\ide\..\hxdsp1042\newlib/libc_c.a(strcmp.o)
 .debug_line    0x0000086b       0x9d C:\Users\Mihtop\Desktop\ECS\ECS\ide\..\hxdsp1042\newlib/libc_c.a(memset.o)
 .debug_line    0x00000892       0xde C:\Users\Mihtop\Desktop\ECS\ECS\ide\..\hxdsp1042\newlib/libc_c.a(stdio.o)
 .debug_line    0x000008ca       0xbf C:\Users\Mihtop\Desktop\ECS\ECS\ide\..\hxdsp1042\newlib/libc_c.a(fclose.o)
 .debug_line    0x000008f9       0xe1 C:\Users\Mihtop\Desktop\ECS\ECS\ide\..\hxdsp1042\newlib/libc_c.a(makebuf.o)
 .debug_line    0x00000932       0xdd C:\Users\Mihtop\Desktop\ECS\ECS\ide\..\hxdsp1042\newlib/libc_c.a(fputwc.o)
 .debug_line    0x00000969      0x19f C:\Users\Mihtop\Desktop\ECS\ECS\ide\..\hxdsp1042\newlib/libc_c.a(fvwrite.o)
 .debug_line    0x000009d1      0x461 C:\Users\Mihtop\Desktop\ECS\ECS\ide\..\hxdsp1042\newlib/libc_c.a(mprec.o)
 .debug_line    0x00000ae9       0x9e C:\Users\Mihtop\Desktop\ECS\ECS\ide\..\hxdsp1042\newlib/libc_c.a(memcpy.o)
 .debug_line    0x00000b10       0xb1 C:\Users\Mihtop\Desktop\ECS\ECS\ide\..\hxdsp1042\newlib/libc_c.a(wcrtomb.o)
 .debug_line    0x00000b3d       0xcd C:\Users\Mihtop\Desktop\ECS\ECS\ide\..\hxdsp1042\newlib/libc_c.a(wbuf.o)
 .debug_line    0x00000b70       0xaf C:\Users\Mihtop\Desktop\ECS\ECS\ide\..\hxdsp1042\newlib/libc_c.a(memmove.o)
 .debug_line    0x00000b9c       0xa9 C:\Users\Mihtop\Desktop\ECS\ECS\ide\..\hxdsp1042\newlib/libc_c.a(wctomb_r.o)
 .debug_line    0x00000bc6       0x9c C:\Users\Mihtop\Desktop\ECS\ECS\ide\..\hxdsp1042\newlib/libm_c.a(sf_fabs.o)
 .debug_line    0x00000bed       0xb0 C:\Users\Mihtop\Desktop\ECS\ECS\ide\..\hxdsp1042\newlib/libm_c.a(sf_fpclassify.o)
 .debug_line    0x00000c19       0xa4 C:\Users\Mihtop\Desktop\ECS\ECS\ide\..\hxdsp1042\epos/libepos_c.a(_finit.o)
 .debug_line    0x00000c42       0xa3 C:\Users\Mihtop\Desktop\ECS\ECS\ide\..\hxdsp1042\epos/libepos_c.a(main.o)
 .debug_line    0x00000c6b       0xab C:\Users\Mihtop\Desktop\ECS\ECS\ide\..\hxdsp1042\epos/libepos_c.a(unsupport_newlib.o)
 .debug_line    0x00000c95       0x8c C:\Users\Mihtop\Desktop\ECS\ECS\ide\..\hxdsp1042\epos/libepos_c.a(_free_r.o)
 .debug_line    0x00000cb8       0x8c C:\Users\Mihtop\Desktop\ECS\ECS\ide\..\hxdsp1042\epos/libepos_c.a(_malloc_r.o)
 .debug_line    0x00000cdb       0xe3 C:\Users\Mihtop\Desktop\ECS\ECS\ide\..\hxdsp1042\epos/libepos_c.a(read.o)
 .debug_line    0x00000d14       0xb2 C:\Users\Mihtop\Desktop\ECS\ECS\ide\..\hxdsp1042\epos/libepos_c.a(lseek.o)
 .debug_line    0x00000d41       0xe3 C:\Users\Mihtop\Desktop\ECS\ECS\ide\..\hxdsp1042\epos/libepos_c.a(write.o)
 .debug_line    0x00000d79       0xa4 C:\Users\Mihtop\Desktop\ECS\ECS\ide\..\hxdsp1042\epos/libepos_c.a(close.o)
 .debug_line    0x00000da2       0x91 C:\Users\Mihtop\Desktop\ECS\ECS\ide\..\hxdsp1042\epos/libepos_c.a(fstat.o)
 .debug_line    0x00000dc7       0x9f C:\Users\Mihtop\Desktop\ECS\ECS\ide\..\hxdsp1042\epos/libepos_c.a(_isatty.o)
 .debug_line    0x00000dee       0x8e C:\Users\Mihtop\Desktop\ECS\ECS\ide\..\hxdsp1042\epos/libepos_c.a(_realloc_r.o)
 .debug_line    0x00000e12       0x8c C:\Users\Mihtop\Desktop\ECS\ECS\ide\..\hxdsp1042\epos/libepos_c.a(_calloc_r.o)
 .debug_line    0x00000e35       0xdf C:\Users\Mihtop\Desktop\ECS\ECS\ide\..\hxdsp1042\epos/libepos_c.a(bootcard.o)
 .debug_line    0x00000e6d       0xa1 C:\Users\Mihtop\Desktop\ECS\ECS\ide\..\hxdsp1042\epos/libepos_c.a(free.o)
 .debug_line    0x00000e95       0xb9 C:\Users\Mihtop\Desktop\ECS\ECS\ide\..\hxdsp1042\epos/libepos_c.a(malloc.o)
 .debug_line    0x00000ec3       0xc7 C:\Users\Mihtop\Desktop\ECS\ECS\ide\..\hxdsp1042\epos/libepos_c.a(hostcomm.o)
 .debug_line    0x00000ef5       0xa6 C:\Users\Mihtop\Desktop\ECS\ECS\ide\..\hxdsp1042\epos/libepos_c.a(ferror.o)
 .debug_line    0x00000f1e       0x91 C:\Users\Mihtop\Desktop\ECS\ECS\ide\..\hxdsp1042\epos/libepos_c.a(_eof.o)
 .debug_line    0x00000f43       0x9c C:\Users\Mihtop\Desktop\ECS\ECS\ide\..\hxdsp1042\epos/libepos_c.a(_tell.o)
 .debug_line    0x00000f6a       0xbc C:\Users\Mihtop\Desktop\ECS\ECS\ide\..\hxdsp1042\epos/libepos_c.a(_realloc.o)
 .debug_line    0x00000f99       0x9b C:\Users\Mihtop\Desktop\ECS\ECS\ide\..\hxdsp1042\epos/libepos_c.a(_calloc.o)
 .debug_line    0x00000fbf       0xa8 C:\Users\Mihtop\Desktop\ECS\ECS\ide\..\hxdsp1042\epos/libepos_c.a(bsplibc.o)
 .debug_line    0x00000fe9       0xa1 C:\Users\Mihtop\Desktop\ECS\ECS\ide\..\hxdsp1042\epos/libepos_c.a(cpu_asm.o)
 .debug_line    0x00001012       0xb8 C:\Users\Mihtop\Desktop\ECS\ECS\ide\..\hxdsp1042\epos/libepos_c.a(bspgetworkarea.o)
 .debug_line    0x00001040       0xa7 C:\Users\Mihtop\Desktop\ECS\ECS\ide\..\hxdsp1042\epos/libepos_c.a(bspclean.o)
 .debug_line    0x00001069       0xad C:\Users\Mihtop\Desktop\ECS\ECS\ide\..\hxdsp1042\epos/libepos_c.a(exinit.o)
 .debug_line    0x00001095       0xae C:\Users\Mihtop\Desktop\ECS\ECS\ide\..\hxdsp1042\epos/libepos_c.a(bsppretaskinghook.o)
 .debug_line    0x000010c0       0xad C:\Users\Mihtop\Desktop\ECS\ECS\ide\..\hxdsp1042\epos/libepos_c.a(bsppredriverhook.o)
 .debug_line    0x000010eb       0xa4 C:\Users\Mihtop\Desktop\ECS\ECS\ide\..\hxdsp1042\epos/libepos_c.a(bsppost.o)
 .debug_line    0x00001114       0x9d C:\Users\Mihtop\Desktop\ECS\ECS\ide\..\hxdsp1042\epos/libepos_c.a(sysstate_inl.o)
 .debug_line    0x0000113c       0xb1 C:\Users\Mihtop\Desktop\ECS\ECS\ide\..\hxdsp1042\epos/libepos_c.a(malloc_deferred.o)
 .debug_line    0x00001168       0x92 C:\Users\Mihtop\Desktop\ECS\ECS\ide\..\hxdsp1042\epos/libepos_c.a(pheapfree.o)
 .debug_line    0x0000118c       0xbe C:\Users\Mihtop\Desktop\ECS\ECS\ide\..\hxdsp1042\epos/libepos_c.a(malloc_initialize.o)
 .debug_line    0x000011bc       0xa2 C:\Users\Mihtop\Desktop\ECS\ECS\ide\..\hxdsp1042\epos/libepos_c.a(protectedheap_inl.o)
 .debug_line    0x000011e4       0x9a C:\Users\Mihtop\Desktop\ECS\ECS\ide\..\hxdsp1042\epos/libepos_c.a(pheapgetblocksize.o)
 .debug_line    0x0000120b       0x9d C:\Users\Mihtop\Desktop\ECS\ECS\ide\..\hxdsp1042\epos/libepos_c.a(pheapresizeblock.o)
 .debug_line    0x00001232       0xc7 C:\Users\Mihtop\Desktop\ECS\ECS\ide\..\hxdsp1042\epos/libepos_c.a(wkspace.o)
 .debug_line    0x00001264       0x8a C:\Users\Mihtop\Desktop\ECS\ECS\ide\..\hxdsp1042\epos/libepos_c.a(isr.o)
 .debug_line    0x00001286       0xba C:\Users\Mihtop\Desktop\ECS\ECS\ide\..\hxdsp1042\epos/libepos_c.a(ckinit.o)
 .debug_line    0x000012b5      0x1de C:\Users\Mihtop\Desktop\ECS\ECS\ide\..\hxdsp1042\epos/libepos_c.a(corechain_inl.o)
 .debug_line    0x0000132c      0x114 C:\Users\Mihtop\Desktop\ECS\ECS\ide\..\hxdsp1042\epos/libepos_c.a(heapfree.o)
 .debug_line    0x00001371       0x83 C:\Users\Mihtop\Desktop\ECS\ECS\ide\..\hxdsp1042\epos/libepos_c.a(fatal.o)
 .debug_line    0x00001392       0x92 C:\Users\Mihtop\Desktop\ECS\ECS\ide\..\hxdsp1042\epos/libepos_c.a(pheapgetsize.o)
 .debug_line    0x000013b7      0x1cc C:\Users\Mihtop\Desktop\ECS\ECS\ide\..\hxdsp1042\epos/libepos_c.a(heap.o)
 .debug_line    0x0000142a       0x98 C:\Users\Mihtop\Desktop\ECS\ECS\ide\..\hxdsp1042\epos/libepos_c.a(pheapallocate.o)
 .debug_line    0x00001450       0xb4 C:\Users\Mihtop\Desktop\ECS\ECS\ide\..\hxdsp1042\epos/libepos_c.a(heapsizeofuserarea.o)
 .debug_line    0x0000147d       0xf2 C:\Users\Mihtop\Desktop\ECS\ECS\ide\..\hxdsp1042\epos/libepos_c.a(heapresizeblock.o)
 .debug_line    0x000014b9       0x95 C:\Users\Mihtop\Desktop\ECS\ECS\ide\..\hxdsp1042\epos/libepos_c.a(interr.o)
 .debug_line    0x000014de      0x16b C:\Users\Mihtop\Desktop\ECS\ECS\ide\..\hxdsp1042\epos/libepos_c.a(heap_inl.o)
 .debug_line    0x00001539       0xcb C:\Users\Mihtop\Desktop\ECS\ECS\ide\..\hxdsp1042\epos/libepos_c.a(interruptc.o)
 .debug_line    0x0000156c       0xc1 C:\Users\Mihtop\Desktop\ECS\ECS\ide\..\hxdsp1042\epos/libepos_c.a(intrdsp.o)
 .debug_line    0x0000159c       0xa2 C:\Users\Mihtop\Desktop\ECS\ECS\ide\..\hxdsp1042\epos/libepos_c.a(clock.o)
 .debug_line    0x000015c5       0x95 C:\Users\Mihtop\Desktop\ECS\ECS\ide\..\hxdsp1042\epos/libepos_c.a(chaininsert.o)
 .debug_line    0x000015ea       0x95 C:\Users\Mihtop\Desktop\ECS\ECS\ide\..\hxdsp1042\epos/libepos_c.a(chainappend.o)
 .debug_line    0x0000160f       0x9a C:\Users\Mihtop\Desktop\ECS\ECS\ide\..\hxdsp1042\epos/libepos_c.a(chainget.o)
 .debug_line    0x00001636      0x12d C:\Users\Mihtop\Desktop\ECS\ECS\ide\..\hxdsp1042\epos/libepos_c.a(heapallocate.o)
 .debug_line    0x00001681      0x297 C:\Users\Mihtop\Desktop\ECS\ECS\ide\..\hxdsp1042\epos/libepos_c.a(_interruptc.o)
 .debug_line    0x00001727      0x40b C:\Users\Mihtop\Desktop\ECS\ECS\ide\..\hxdsp1042\epos/libepos_c.a(start_interrupt.o)
 .debug_line    0x00001829      0x11c C:\Users\Mihtop\Desktop\ECS\ECS\ide\..\hxdsp1042\epos/libepos_c.a(_intscr.o)
 .debug_line    0x00001870       0x8d C:\Users\Mihtop\Desktop\ECS\ECS\ide\..\hxdsp1042\newlib/libc_c.a(errno.o)

.debug_abbrev   0x00000000     0x5a49
 *(.debug_abbrev)
 .debug_abbrev  0x00000000       0x14 C:\Users\Mihtop\Desktop\ECS\ECS\ide\\..\hxdsp1042\newlib\crt0_c.o
 .debug_abbrev  0x00000005       0x14 ./bw_cvabs_f.o
 .debug_abbrev  0x0000000a       0x14 ./bw_cvfft_f.o
 .debug_abbrev  0x0000000f       0x14 ./bw_cvifft_f.o
 .debug_abbrev  0x00000014       0x14 ./complex_multi.o
 .debug_abbrev  0x00000019       0x14 ./div_func.o
 .debug_abbrev  0x0000001e       0x14 ./get_coreid.o
 .debug_abbrev  0x00000023      0x16d ./init.o
 .debug_abbrev  0x0000007e       0xff ./bsp/bspstart.o
 .debug_abbrev  0x000000be      0x122 C:\Users\Mihtop\Desktop\ECS\ECS\ide\..\hxdsp1042\newlib/libc_c.a(printf.o)
 .debug_abbrev  0x00000106       0xd7 C:\Users\Mihtop\Desktop\ECS\ECS\ide\..\hxdsp1042\newlib/libc_c.a(clock.o)
 .debug_abbrev  0x0000013c       0x14 C:\Users\Mihtop\Desktop\ECS\ECS\ide\..\hxdsp1042\newlib/libc_c.a(int_div_precision.o)
 .debug_abbrev  0x00000141      0x17d C:\Users\Mihtop\Desktop\ECS\ECS\ide\..\hxdsp1042\newlib/libc_c.a(vfprintf.o)
 .debug_abbrev  0x000001a0       0xbd C:\Users\Mihtop\Desktop\ECS\ECS\ide\..\hxdsp1042\newlib/libc_c.a(impure.o)
 .debug_abbrev  0x000001cf      0x122 C:\Users\Mihtop\Desktop\ECS\ECS\ide\..\hxdsp1042\newlib/libc_c.a(fflush.o)
 .debug_abbrev  0x00000218      0x112 C:\Users\Mihtop\Desktop\ECS\ECS\ide\..\hxdsp1042\newlib/libc_c.a(locale.o)
 .debug_abbrev  0x0000025c       0xe8 C:\Users\Mihtop\Desktop\ECS\ECS\ide\..\hxdsp1042\newlib/libc_c.a(strlen.o)
 .debug_abbrev  0x00000296      0x161 C:\Users\Mihtop\Desktop\ECS\ECS\ide\..\hxdsp1042\newlib/libc_c.a(findfp.o)
 .debug_abbrev  0x000002ef       0xfa C:\Users\Mihtop\Desktop\ECS\ECS\ide\..\hxdsp1042\newlib/libc_c.a(wsetup.o)
 .debug_abbrev  0x0000032d      0x165 C:\Users\Mihtop\Desktop\ECS\ECS\ide\..\hxdsp1042\newlib/libc_c.a(vfiprintf.o)
 .debug_abbrev  0x00000386       0xed C:\Users\Mihtop\Desktop\ECS\ECS\ide\..\hxdsp1042\newlib/libc_c.a(memchr.o)
 .debug_abbrev  0x000003c2       0x14 C:\Users\Mihtop\Desktop\ECS\ECS\ide\..\hxdsp1042\newlib/libc_c.a(uint_div_precision.o)
 .debug_abbrev  0x000003c7      0x158 C:\Users\Mihtop\Desktop\ECS\ECS\ide\..\hxdsp1042\newlib/libc_c.a(dtoa.o)
 .debug_abbrev  0x0000041d      0x122 C:\Users\Mihtop\Desktop\ECS\ECS\ide\..\hxdsp1042\newlib/libc_c.a(fwalk.o)
 .debug_abbrev  0x00000465       0xd9 C:\Users\Mihtop\Desktop\ECS\ECS\ide\..\hxdsp1042\newlib/libc_c.a(strcmp.o)
 .debug_abbrev  0x0000049b       0xe8 C:\Users\Mihtop\Desktop\ECS\ECS\ide\..\hxdsp1042\newlib/libc_c.a(memset.o)
 .debug_abbrev  0x000004d5      0x127 C:\Users\Mihtop\Desktop\ECS\ECS\ide\..\hxdsp1042\newlib/libc_c.a(stdio.o)
 .debug_abbrev  0x0000051f      0x122 C:\Users\Mihtop\Desktop\ECS\ECS\ide\..\hxdsp1042\newlib/libc_c.a(fclose.o)
 .debug_abbrev  0x00000568      0x107 C:\Users\Mihtop\Desktop\ECS\ECS\ide\..\hxdsp1042\newlib/libc_c.a(makebuf.o)
 .debug_abbrev  0x000005a9      0x139 C:\Users\Mihtop\Desktop\ECS\ECS\ide\..\hxdsp1042\newlib/libc_c.a(fputwc.o)
 .debug_abbrev  0x000005f8      0x137 C:\Users\Mihtop\Desktop\ECS\ECS\ide\..\hxdsp1042\newlib/libc_c.a(fvwrite.o)
 .debug_abbrev  0x00000645      0x1df C:\Users\Mihtop\Desktop\ECS\ECS\ide\..\hxdsp1042\newlib/libc_c.a(mprec.o)
 .debug_abbrev  0x000006bd       0xed C:\Users\Mihtop\Desktop\ECS\ECS\ide\..\hxdsp1042\newlib/libc_c.a(memcpy.o)
 .debug_abbrev  0x000006f8      0x101 C:\Users\Mihtop\Desktop\ECS\ECS\ide\..\hxdsp1042\newlib/libc_c.a(wcrtomb.o)
 .debug_abbrev  0x00000739      0x122 C:\Users\Mihtop\Desktop\ECS\ECS\ide\..\hxdsp1042\newlib/libc_c.a(wbuf.o)
 .debug_abbrev  0x00000781       0xed C:\Users\Mihtop\Desktop\ECS\ECS\ide\..\hxdsp1042\newlib/libc_c.a(memmove.o)
 .debug_abbrev  0x000007bc      0x112 C:\Users\Mihtop\Desktop\ECS\ECS\ide\..\hxdsp1042\newlib/libc_c.a(wctomb_r.o)
 .debug_abbrev  0x00000801      0x12a C:\Users\Mihtop\Desktop\ECS\ECS\ide\..\hxdsp1042\newlib/libm_c.a(sf_fabs.o)
 .debug_abbrev  0x0000084b      0x111 C:\Users\Mihtop\Desktop\ECS\ECS\ide\..\hxdsp1042\newlib/libm_c.a(sf_fpclassify.o)
 .debug_abbrev  0x00000890       0xc8 C:\Users\Mihtop\Desktop\ECS\ECS\ide\..\hxdsp1042\epos/libepos_c.a(_finit.o)
 .debug_abbrev  0x000008c2       0x52 C:\Users\Mihtop\Desktop\ECS\ECS\ide\..\hxdsp1042\epos/libepos_c.a(main.o)
 .debug_abbrev  0x000008d6      0x118 C:\Users\Mihtop\Desktop\ECS\ECS\ide\..\hxdsp1042\epos/libepos_c.a(unsupport_newlib.o)
 .debug_abbrev  0x0000091c       0xff C:\Users\Mihtop\Desktop\ECS\ECS\ide\..\hxdsp1042\epos/libepos_c.a(_free_r.o)
 .debug_abbrev  0x0000095c      0x101 C:\Users\Mihtop\Desktop\ECS\ECS\ide\..\hxdsp1042\epos/libepos_c.a(_malloc_r.o)
 .debug_abbrev  0x0000099c      0x12e C:\Users\Mihtop\Desktop\ECS\ECS\ide\..\hxdsp1042\epos/libepos_c.a(read.o)
 .debug_abbrev  0x000009e8      0x129 C:\Users\Mihtop\Desktop\ECS\ECS\ide\..\hxdsp1042\epos/libepos_c.a(lseek.o)
 .debug_abbrev  0x00000a32      0x12e C:\Users\Mihtop\Desktop\ECS\ECS\ide\..\hxdsp1042\epos/libepos_c.a(write.o)
 .debug_abbrev  0x00000a7d      0x129 C:\Users\Mihtop\Desktop\ECS\ECS\ide\..\hxdsp1042\epos/libepos_c.a(close.o)
 .debug_abbrev  0x00000ac8      0x11a C:\Users\Mihtop\Desktop\ECS\ECS\ide\..\hxdsp1042\epos/libepos_c.a(fstat.o)
 .debug_abbrev  0x00000b0e      0x129 C:\Users\Mihtop\Desktop\ECS\ECS\ide\..\hxdsp1042\epos/libepos_c.a(_isatty.o)
 .debug_abbrev  0x00000b58      0x101 C:\Users\Mihtop\Desktop\ECS\ECS\ide\..\hxdsp1042\epos/libepos_c.a(_realloc_r.o)
 .debug_abbrev  0x00000b99      0x101 C:\Users\Mihtop\Desktop\ECS\ECS\ide\..\hxdsp1042\epos/libepos_c.a(_calloc_r.o)
 .debug_abbrev  0x00000bd9      0x136 C:\Users\Mihtop\Desktop\ECS\ECS\ide\..\hxdsp1042\epos/libepos_c.a(bootcard.o)
 .debug_abbrev  0x00000c26       0xff C:\Users\Mihtop\Desktop\ECS\ECS\ide\..\hxdsp1042\epos/libepos_c.a(free.o)
 .debug_abbrev  0x00000c66      0x110 C:\Users\Mihtop\Desktop\ECS\ECS\ide\..\hxdsp1042\epos/libepos_c.a(malloc.o)
 .debug_abbrev  0x00000caa      0x13a C:\Users\Mihtop\Desktop\ECS\ECS\ide\..\hxdsp1042\epos/libepos_c.a(hostcomm.o)
 .debug_abbrev  0x00000cf9      0x127 C:\Users\Mihtop\Desktop\ECS\ECS\ide\..\hxdsp1042\epos/libepos_c.a(ferror.o)
 .debug_abbrev  0x00000d42      0x101 C:\Users\Mihtop\Desktop\ECS\ECS\ide\..\hxdsp1042\epos/libepos_c.a(_eof.o)
 .debug_abbrev  0x00000d83      0x110 C:\Users\Mihtop\Desktop\ECS\ECS\ide\..\hxdsp1042\epos/libepos_c.a(_tell.o)
 .debug_abbrev  0x00000dc7      0x115 C:\Users\Mihtop\Desktop\ECS\ECS\ide\..\hxdsp1042\epos/libepos_c.a(_realloc.o)
 .debug_abbrev  0x00000e0c      0x110 C:\Users\Mihtop\Desktop\ECS\ECS\ide\..\hxdsp1042\epos/libepos_c.a(_calloc.o)
 .debug_abbrev  0x00000e50       0xff C:\Users\Mihtop\Desktop\ECS\ECS\ide\..\hxdsp1042\epos/libepos_c.a(bsplibc.o)
 .debug_abbrev  0x00000e90       0x14 C:\Users\Mihtop\Desktop\ECS\ECS\ide\..\hxdsp1042\epos/libepos_c.a(cpu_asm.o)
 .debug_abbrev  0x00000e95       0xff C:\Users\Mihtop\Desktop\ECS\ECS\ide\..\hxdsp1042\epos/libepos_c.a(bspgetworkarea.o)
 .debug_abbrev  0x00000ed4       0xf0 C:\Users\Mihtop\Desktop\ECS\ECS\ide\..\hxdsp1042\epos/libepos_c.a(bspclean.o)
 .debug_abbrev  0x00000f10      0x197 C:\Users\Mihtop\Desktop\ECS\ECS\ide\..\hxdsp1042\epos/libepos_c.a(exinit.o)
 .debug_abbrev  0x00000f76       0x2b C:\Users\Mihtop\Desktop\ECS\ECS\ide\..\hxdsp1042\epos/libepos_c.a(bsppretaskinghook.o)
 .debug_abbrev  0x00000f81       0x2b C:\Users\Mihtop\Desktop\ECS\ECS\ide\..\hxdsp1042\epos/libepos_c.a(bsppredriverhook.o)
 .debug_abbrev  0x00000f8c       0xf0 C:\Users\Mihtop\Desktop\ECS\ECS\ide\..\hxdsp1042\epos/libepos_c.a(bsppost.o)
 .debug_abbrev  0x00000fc8      0x121 C:\Users\Mihtop\Desktop\ECS\ECS\ide\..\hxdsp1042\epos/libepos_c.a(sysstate_inl.o)
 .debug_abbrev  0x00001010      0x14b C:\Users\Mihtop\Desktop\ECS\ECS\ide\..\hxdsp1042\epos/libepos_c.a(malloc_deferred.o)
 .debug_abbrev  0x00001063       0xe8 C:\Users\Mihtop\Desktop\ECS\ECS\ide\..\hxdsp1042\epos/libepos_c.a(pheapfree.o)
 .debug_abbrev  0x0000109d      0x11f C:\Users\Mihtop\Desktop\ECS\ECS\ide\..\hxdsp1042\epos/libepos_c.a(malloc_initialize.o)
 .debug_abbrev  0x000010e4       0xf2 C:\Users\Mihtop\Desktop\ECS\ECS\ide\..\hxdsp1042\epos/libepos_c.a(protectedheap_inl.o)
 .debug_abbrev  0x00001121       0xe8 C:\Users\Mihtop\Desktop\ECS\ECS\ide\..\hxdsp1042\epos/libepos_c.a(pheapgetblocksize.o)
 .debug_abbrev  0x0000115b      0x102 C:\Users\Mihtop\Desktop\ECS\ECS\ide\..\hxdsp1042\epos/libepos_c.a(pheapresizeblock.o)
 .debug_abbrev  0x0000119b      0x140 C:\Users\Mihtop\Desktop\ECS\ECS\ide\..\hxdsp1042\epos/libepos_c.a(wkspace.o)
 .debug_abbrev  0x000011eb       0xf0 C:\Users\Mihtop\Desktop\ECS\ECS\ide\..\hxdsp1042\epos/libepos_c.a(isr.o)
 .debug_abbrev  0x00001227      0x129 C:\Users\Mihtop\Desktop\ECS\ECS\ide\..\hxdsp1042\epos/libepos_c.a(ckinit.o)
 .debug_abbrev  0x00001272      0x18f C:\Users\Mihtop\Desktop\ECS\ECS\ide\..\hxdsp1042\epos/libepos_c.a(corechain_inl.o)
 .debug_abbrev  0x000012d5      0x102 C:\Users\Mihtop\Desktop\ECS\ECS\ide\..\hxdsp1042\epos/libepos_c.a(heapfree.o)
 .debug_abbrev  0x00001316       0xf1 C:\Users\Mihtop\Desktop\ECS\ECS\ide\..\hxdsp1042\epos/libepos_c.a(fatal.o)
 .debug_abbrev  0x00001352       0xd9 C:\Users\Mihtop\Desktop\ECS\ECS\ide\..\hxdsp1042\epos/libepos_c.a(pheapgetsize.o)
 .debug_abbrev  0x00001388      0x185 C:\Users\Mihtop\Desktop\ECS\ECS\ide\..\hxdsp1042\epos/libepos_c.a(heap.o)
 .debug_abbrev  0x000013ea       0xe8 C:\Users\Mihtop\Desktop\ECS\ECS\ide\..\hxdsp1042\epos/libepos_c.a(pheapallocate.o)
 .debug_abbrev  0x00001424      0x102 C:\Users\Mihtop\Desktop\ECS\ECS\ide\..\hxdsp1042\epos/libepos_c.a(heapsizeofuserarea.o)
 .debug_abbrev  0x00001464      0x119 C:\Users\Mihtop\Desktop\ECS\ECS\ide\..\hxdsp1042\epos/libepos_c.a(heapresizeblock.o)
 .debug_abbrev  0x000014aa       0xf1 C:\Users\Mihtop\Desktop\ECS\ECS\ide\..\hxdsp1042\epos/libepos_c.a(interr.o)
 .debug_abbrev  0x000014e7      0x118 C:\Users\Mihtop\Desktop\ECS\ECS\ide\..\hxdsp1042\epos/libepos_c.a(heap_inl.o)
 .debug_abbrev  0x0000152d       0x14 C:\Users\Mihtop\Desktop\ECS\ECS\ide\..\hxdsp1042\epos/libepos_c.a(interruptc.o)
 .debug_abbrev  0x00001532       0x87 C:\Users\Mihtop\Desktop\ECS\ECS\ide\..\hxdsp1042\epos/libepos_c.a(intrdsp.o)
 .debug_abbrev  0x00001553       0x14 C:\Users\Mihtop\Desktop\ECS\ECS\ide\..\hxdsp1042\epos/libepos_c.a(clock.o)
 .debug_abbrev  0x00001558       0xed C:\Users\Mihtop\Desktop\ECS\ECS\ide\..\hxdsp1042\epos/libepos_c.a(chaininsert.o)
 .debug_abbrev  0x00001594       0xed C:\Users\Mihtop\Desktop\ECS\ECS\ide\..\hxdsp1042\epos/libepos_c.a(chainappend.o)
 .debug_abbrev  0x000015cf       0xef C:\Users\Mihtop\Desktop\ECS\ECS\ide\..\hxdsp1042\epos/libepos_c.a(chainget.o)
 .debug_abbrev  0x0000160b      0x119 C:\Users\Mihtop\Desktop\ECS\ECS\ide\..\hxdsp1042\epos/libepos_c.a(heapallocate.o)
 .debug_abbrev  0x00001651       0x14 C:\Users\Mihtop\Desktop\ECS\ECS\ide\..\hxdsp1042\epos/libepos_c.a(_interruptc.o)
 .debug_abbrev  0x00001656       0x14 C:\Users\Mihtop\Desktop\ECS\ECS\ide\..\hxdsp1042\epos/libepos_c.a(start_interrupt.o)
 .debug_abbrev  0x0000165b       0x14 C:\Users\Mihtop\Desktop\ECS\ECS\ide\..\hxdsp1042\epos/libepos_c.a(_intscr.o)
 .debug_abbrev  0x00001660       0xc8 C:\Users\Mihtop\Desktop\ECS\ECS\ide\..\hxdsp1042\newlib/libc_c.a(errno.o)

.debug_str
 *(.debug_str)
OUTPUT(201124.out elf32-bwdsp100)

Cross Reference Table

Symbol                                            File
_(int, short,...)(long double, void,...)(long double) C:\Users\Mihtop\Desktop\ECS\ECS\ide\..\hxdsp1042\epos/libepos_c.a(hostcomm.o)
                                                  C:\Users\Mihtop\Desktop\ECS\ECS\ide\..\hxdsp1042\epos/libepos_c.a(_tell.o)
                                                  C:\Users\Mihtop\Desktop\ECS\ECS\ide\..\hxdsp1042\epos/libepos_c.a(_eof.o)
                                                  C:\Users\Mihtop\Desktop\ECS\ECS\ide\..\hxdsp1042\epos/libepos_c.a(ferror.o)
                                                  C:\Users\Mihtop\Desktop\ECS\ECS\ide\..\hxdsp1042\epos/libepos_c.a(_isatty.o)
                                                  C:\Users\Mihtop\Desktop\ECS\ECS\ide\..\hxdsp1042\epos/libepos_c.a(close.o)
                                                  C:\Users\Mihtop\Desktop\ECS\ECS\ide\..\hxdsp1042\epos/libepos_c.a(write.o)
                                                  C:\Users\Mihtop\Desktop\ECS\ECS\ide\..\hxdsp1042\epos/libepos_c.a(lseek.o)
                                                  C:\Users\Mihtop\Desktop\ECS\ECS\ide\..\hxdsp1042\epos/libepos_c.a(read.o)
_(short, bool, float __restrict, float,...)(long double) C:\Users\Mihtop\Desktop\ECS\ECS\ide\..\hxdsp1042\epos/libepos_c.a(hostcomm.o)
                                                  C:\Users\Mihtop\Desktop\ECS\ECS\ide\..\hxdsp1042\epos/libepos_c.a(_tell.o)
                                                  C:\Users\Mihtop\Desktop\ECS\ECS\ide\..\hxdsp1042\epos/libepos_c.a(_eof.o)
                                                  C:\Users\Mihtop\Desktop\ECS\ECS\ide\..\hxdsp1042\epos/libepos_c.a(ferror.o)
                                                  C:\Users\Mihtop\Desktop\ECS\ECS\ide\..\hxdsp1042\epos/libepos_c.a(_isatty.o)
                                                  C:\Users\Mihtop\Desktop\ECS\ECS\ide\..\hxdsp1042\epos/libepos_c.a(close.o)
                                                  C:\Users\Mihtop\Desktop\ECS\ECS\ide\..\hxdsp1042\epos/libepos_c.a(write.o)
                                                  C:\Users\Mihtop\Desktop\ECS\ECS\ide\..\hxdsp1042\epos/libepos_c.a(lseek.o)
                                                  C:\Users\Mihtop\Desktop\ECS\ECS\ide\..\hxdsp1042\epos/libepos_c.a(read.o)
_ARGC                                             C:\Users\Mihtop\Desktop\ECS\ECS\ide\\..\hxdsp1042\newlib\crt0_c.o
_ARGVS                                            C:\Users\Mihtop\Desktop\ECS\ECS\ide\\..\hxdsp1042\newlib\crt0_c.o
__(long,  *) __restrict                           C:\Users\Mihtop\Desktop\ECS\ECS\ide\..\hxdsp1042\newlib/libc_c.a(mprec.o)
__(short, float,  *)                              C:\Users\Mihtop\Desktop\ECS\ECS\ide\..\hxdsp1042\newlib/libc_c.a(findfp.o)
__(short, wchar_t, bool, float __restrict)        C:\Users\Mihtop\Desktop\ECS\ECS\ide\..\hxdsp1042\newlib/libc_c.a(wbuf.o)
__Clock_driver_ticks                              C:\Users\Mihtop\Desktop\ECS\ECS\ide\..\hxdsp1042\epos/libepos_c.a(ckinit.o)
__Clock_initialize                                C:\Users\Mihtop\Desktop\ECS\ECS\ide\..\hxdsp1042\epos/libepos_c.a(ckinit.o)
                                                  C:\Users\Mihtop\Desktop\ECS\ECS\ide\..\hxdsp1042\epos/libepos_c.a(exinit.o)
__Clock_isr                                       C:\Users\Mihtop\Desktop\ECS\ECS\ide\..\hxdsp1042\epos/libepos_c.a(ckinit.o)
__Clock_isrs                                      C:\Users\Mihtop\Desktop\ECS\ECS\ide\..\hxdsp1042\epos/libepos_c.a(ckinit.o)
__Configuration                                   ./init.o
                                                  C:\Users\Mihtop\Desktop\ECS\ECS\ide\..\hxdsp1042\epos/libepos_c.a(ckinit.o)
                                                  C:\Users\Mihtop\Desktop\ECS\ECS\ide\..\hxdsp1042\epos/libepos_c.a(wkspace.o)
                                                  C:\Users\Mihtop\Desktop\ECS\ECS\ide\..\hxdsp1042\epos/libepos_c.a(malloc_initialize.o)
                                                  C:\Users\Mihtop\Desktop\ECS\ECS\ide\..\hxdsp1042\epos/libepos_c.a(exinit.o)
                                                  C:\Users\Mihtop\Desktop\ECS\ECS\ide\..\hxdsp1042\epos/libepos_c.a(bspgetworkarea.o)
                                                  C:\Users\Mihtop\Desktop\ECS\ECS\ide\..\hxdsp1042\epos/libepos_c.a(bootcard.o)
                                                  ./bsp/bspstart.o
__Configuration_EPOS_API                          ./init.o
__Core_ID                                         ./init.o
__DFT                                             ./init.o
__EPOS_Malloc_Area                                ./init.o
__EPOS_Malloc_GC_list                             C:\Users\Mihtop\Desktop\ECS\ECS\ide\..\hxdsp1042\epos/libepos_c.a(malloc_deferred.o)
__EPOS_Malloc_Heap                                ./init.o
                                                  C:\Users\Mihtop\Desktop\ECS\ECS\ide\..\hxdsp1042\epos/libepos_c.a(malloc_initialize.o)
                                                  C:\Users\Mihtop\Desktop\ECS\ECS\ide\..\hxdsp1042\epos/libepos_c.a(_realloc.o)
                                                  C:\Users\Mihtop\Desktop\ECS\ECS\ide\..\hxdsp1042\epos/libepos_c.a(malloc.o)
                                                  C:\Users\Mihtop\Desktop\ECS\ECS\ide\..\hxdsp1042\epos/libepos_c.a(free.o)
__EPOS_Malloc_Initialize                          C:\Users\Mihtop\Desktop\ECS\ECS\ide\..\hxdsp1042\epos/libepos_c.a(malloc_initialize.o)
                                                  C:\Users\Mihtop\Desktop\ECS\ECS\ide\..\hxdsp1042\epos/libepos_c.a(bsplibc.o)
__Fir                                             ./init.o
___Balloc                                         C:\Users\Mihtop\Desktop\ECS\ECS\ide\..\hxdsp1042\newlib/libc_c.a(mprec.o)
                                                  C:\Users\Mihtop\Desktop\ECS\ECS\ide\..\hxdsp1042\newlib/libc_c.a(dtoa.o)
___Bfree                                          C:\Users\Mihtop\Desktop\ECS\ECS\ide\..\hxdsp1042\newlib/libc_c.a(mprec.o)
                                                  C:\Users\Mihtop\Desktop\ECS\ECS\ide\..\hxdsp1042\newlib/libc_c.a(dtoa.o)
___Chain_Append                                   C:\Users\Mihtop\Desktop\ECS\ECS\ide\..\hxdsp1042\epos/libepos_c.a(chainappend.o)
                                                  C:\Users\Mihtop\Desktop\ECS\ECS\ide\..\hxdsp1042\epos/libepos_c.a(corechain_inl.o)
___Chain_Append_unprotected                       C:\Users\Mihtop\Desktop\ECS\ECS\ide\..\hxdsp1042\epos/libepos_c.a(corechain_inl.o)
                                                  C:\Users\Mihtop\Desktop\ECS\ECS\ide\..\hxdsp1042\epos/libepos_c.a(chainappend.o)
___Chain_Are_nodes_equal                          C:\Users\Mihtop\Desktop\ECS\ECS\ide\..\hxdsp1042\epos/libepos_c.a(corechain_inl.o)
___Chain_Extract_unprotected                      C:\Users\Mihtop\Desktop\ECS\ECS\ide\..\hxdsp1042\epos/libepos_c.a(corechain_inl.o)
___Chain_First                                    C:\Users\Mihtop\Desktop\ECS\ECS\ide\..\hxdsp1042\epos/libepos_c.a(corechain_inl.o)
___Chain_Get                                      C:\Users\Mihtop\Desktop\ECS\ECS\ide\..\hxdsp1042\epos/libepos_c.a(chainget.o)
                                                  C:\Users\Mihtop\Desktop\ECS\ECS\ide\..\hxdsp1042\epos/libepos_c.a(corechain_inl.o)
___Chain_Get_first_unprotected                    C:\Users\Mihtop\Desktop\ECS\ECS\ide\..\hxdsp1042\epos/libepos_c.a(corechain_inl.o)
                                                  C:\Users\Mihtop\Desktop\ECS\ECS\ide\..\hxdsp1042\epos/libepos_c.a(chainget.o)
___Chain_Get_unprotected                          C:\Users\Mihtop\Desktop\ECS\ECS\ide\..\hxdsp1042\epos/libepos_c.a(corechain_inl.o)
___Chain_Has_only_one_node                        C:\Users\Mihtop\Desktop\ECS\ECS\ide\..\hxdsp1042\epos/libepos_c.a(corechain_inl.o)
___Chain_Head                                     C:\Users\Mihtop\Desktop\ECS\ECS\ide\..\hxdsp1042\epos/libepos_c.a(corechain_inl.o)
___Chain_Initialize_empty                         C:\Users\Mihtop\Desktop\ECS\ECS\ide\..\hxdsp1042\epos/libepos_c.a(corechain_inl.o)
___Chain_Insert                                   C:\Users\Mihtop\Desktop\ECS\ECS\ide\..\hxdsp1042\epos/libepos_c.a(chaininsert.o)
                                                  C:\Users\Mihtop\Desktop\ECS\ECS\ide\..\hxdsp1042\epos/libepos_c.a(corechain_inl.o)
___Chain_Insert_unprotected                       C:\Users\Mihtop\Desktop\ECS\ECS\ide\..\hxdsp1042\epos/libepos_c.a(corechain_inl.o)
                                                  C:\Users\Mihtop\Desktop\ECS\ECS\ide\..\hxdsp1042\epos/libepos_c.a(chaininsert.o)
___Chain_Is_empty                                 C:\Users\Mihtop\Desktop\ECS\ECS\ide\..\hxdsp1042\epos/libepos_c.a(corechain_inl.o)
                                                  C:\Users\Mihtop\Desktop\ECS\ECS\ide\..\hxdsp1042\epos/libepos_c.a(chainget.o)
___Chain_Is_first                                 C:\Users\Mihtop\Desktop\ECS\ECS\ide\..\hxdsp1042\epos/libepos_c.a(corechain_inl.o)
___Chain_Is_head                                  C:\Users\Mihtop\Desktop\ECS\ECS\ide\..\hxdsp1042\epos/libepos_c.a(corechain_inl.o)
___Chain_Is_last                                  C:\Users\Mihtop\Desktop\ECS\ECS\ide\..\hxdsp1042\epos/libepos_c.a(corechain_inl.o)
___Chain_Is_node_off_chain                        C:\Users\Mihtop\Desktop\ECS\ECS\ide\..\hxdsp1042\epos/libepos_c.a(corechain_inl.o)
___Chain_Is_null                                  C:\Users\Mihtop\Desktop\ECS\ECS\ide\..\hxdsp1042\epos/libepos_c.a(corechain_inl.o)
___Chain_Is_null_node                             C:\Users\Mihtop\Desktop\ECS\ECS\ide\..\hxdsp1042\epos/libepos_c.a(corechain_inl.o)
___Chain_Is_tail                                  C:\Users\Mihtop\Desktop\ECS\ECS\ide\..\hxdsp1042\epos/libepos_c.a(corechain_inl.o)
___Chain_Last                                     C:\Users\Mihtop\Desktop\ECS\ECS\ide\..\hxdsp1042\epos/libepos_c.a(corechain_inl.o)
___Chain_Next                                     C:\Users\Mihtop\Desktop\ECS\ECS\ide\..\hxdsp1042\epos/libepos_c.a(corechain_inl.o)
___Chain_Prepend                                  C:\Users\Mihtop\Desktop\ECS\ECS\ide\..\hxdsp1042\epos/libepos_c.a(corechain_inl.o)
___Chain_Prepend_unprotected                      C:\Users\Mihtop\Desktop\ECS\ECS\ide\..\hxdsp1042\epos/libepos_c.a(corechain_inl.o)
___Chain_Previous                                 C:\Users\Mihtop\Desktop\ECS\ECS\ide\..\hxdsp1042\epos/libepos_c.a(corechain_inl.o)
___Chain_Set_off_chain                            C:\Users\Mihtop\Desktop\ECS\ECS\ide\..\hxdsp1042\epos/libepos_c.a(corechain_inl.o)
___Chain_Tail                                     C:\Users\Mihtop\Desktop\ECS\ECS\ide\..\hxdsp1042\epos/libepos_c.a(corechain_inl.o)
___Copyright_Notice                               C:\Users\Mihtop\Desktop\ECS\ECS\ide\..\hxdsp1042\epos/libepos_c.a(exinit.o)
___Heap_Align_down                                C:\Users\Mihtop\Desktop\ECS\ECS\ide\..\hxdsp1042\epos/libepos_c.a(heap_inl.o)
                                                  C:\Users\Mihtop\Desktop\ECS\ECS\ide\..\hxdsp1042\epos/libepos_c.a(heapallocate.o)
                                                  C:\Users\Mihtop\Desktop\ECS\ECS\ide\..\hxdsp1042\epos/libepos_c.a(heap.o)
___Heap_Align_up                                  C:\Users\Mihtop\Desktop\ECS\ECS\ide\..\hxdsp1042\epos/libepos_c.a(heap_inl.o)
                                                  C:\Users\Mihtop\Desktop\ECS\ECS\ide\..\hxdsp1042\epos/libepos_c.a(heap.o)
___Heap_Alloc_area_of_block                       C:\Users\Mihtop\Desktop\ECS\ECS\ide\..\hxdsp1042\epos/libepos_c.a(heap_inl.o)
                                                  C:\Users\Mihtop\Desktop\ECS\ECS\ide\..\hxdsp1042\epos/libepos_c.a(heapallocate.o)
                                                  C:\Users\Mihtop\Desktop\ECS\ECS\ide\..\hxdsp1042\epos/libepos_c.a(heap.o)
___Heap_Allocate                                  C:\Users\Mihtop\Desktop\ECS\ECS\ide\..\hxdsp1042\epos/libepos_c.a(heap_inl.o)
                                                  C:\Users\Mihtop\Desktop\ECS\ECS\ide\..\hxdsp1042\epos/libepos_c.a(wkspace.o)
___Heap_Allocate_aligned                          C:\Users\Mihtop\Desktop\ECS\ECS\ide\..\hxdsp1042\epos/libepos_c.a(heap_inl.o)
___Heap_Allocate_aligned_with_boundary            C:\Users\Mihtop\Desktop\ECS\ECS\ide\..\hxdsp1042\epos/libepos_c.a(heapallocate.o)
                                                  C:\Users\Mihtop\Desktop\ECS\ECS\ide\..\hxdsp1042\epos/libepos_c.a(heap_inl.o)
                                                  C:\Users\Mihtop\Desktop\ECS\ECS\ide\..\hxdsp1042\epos/libepos_c.a(pheapallocate.o)
___Heap_Block_allocate                            C:\Users\Mihtop\Desktop\ECS\ECS\ide\..\hxdsp1042\epos/libepos_c.a(heap.o)
                                                  C:\Users\Mihtop\Desktop\ECS\ECS\ide\..\hxdsp1042\epos/libepos_c.a(heapallocate.o)
                                                  C:\Users\Mihtop\Desktop\ECS\ECS\ide\..\hxdsp1042\epos/libepos_c.a(heapresizeblock.o)
___Heap_Block_at                                  C:\Users\Mihtop\Desktop\ECS\ECS\ide\..\hxdsp1042\epos/libepos_c.a(heap_inl.o)
                                                  C:\Users\Mihtop\Desktop\ECS\ECS\ide\..\hxdsp1042\epos/libepos_c.a(heapresizeblock.o)
                                                  C:\Users\Mihtop\Desktop\ECS\ECS\ide\..\hxdsp1042\epos/libepos_c.a(heapsizeofuserarea.o)
                                                  C:\Users\Mihtop\Desktop\ECS\ECS\ide\..\hxdsp1042\epos/libepos_c.a(heap.o)
                                                  C:\Users\Mihtop\Desktop\ECS\ECS\ide\..\hxdsp1042\epos/libepos_c.a(heapfree.o)
___Heap_Block_of_alloc_area                       C:\Users\Mihtop\Desktop\ECS\ECS\ide\..\hxdsp1042\epos/libepos_c.a(heap_inl.o)
                                                  C:\Users\Mihtop\Desktop\ECS\ECS\ide\..\hxdsp1042\epos/libepos_c.a(heapallocate.o)
                                                  C:\Users\Mihtop\Desktop\ECS\ECS\ide\..\hxdsp1042\epos/libepos_c.a(heapresizeblock.o)
                                                  C:\Users\Mihtop\Desktop\ECS\ECS\ide\..\hxdsp1042\epos/libepos_c.a(heapsizeofuserarea.o)
                                                  C:\Users\Mihtop\Desktop\ECS\ECS\ide\..\hxdsp1042\epos/libepos_c.a(heap.o)
                                                  C:\Users\Mihtop\Desktop\ECS\ECS\ide\..\hxdsp1042\epos/libepos_c.a(heapfree.o)
___Heap_Block_set_size                            C:\Users\Mihtop\Desktop\ECS\ECS\ide\..\hxdsp1042\epos/libepos_c.a(heap_inl.o)
                                                  C:\Users\Mihtop\Desktop\ECS\ECS\ide\..\hxdsp1042\epos/libepos_c.a(heapresizeblock.o)
                                                  C:\Users\Mihtop\Desktop\ECS\ECS\ide\..\hxdsp1042\epos/libepos_c.a(heap.o)
___Heap_Block_size                                C:\Users\Mihtop\Desktop\ECS\ECS\ide\..\hxdsp1042\epos/libepos_c.a(heap_inl.o)
                                                  C:\Users\Mihtop\Desktop\ECS\ECS\ide\..\hxdsp1042\epos/libepos_c.a(heapallocate.o)
                                                  C:\Users\Mihtop\Desktop\ECS\ECS\ide\..\hxdsp1042\epos/libepos_c.a(heapresizeblock.o)
                                                  C:\Users\Mihtop\Desktop\ECS\ECS\ide\..\hxdsp1042\epos/libepos_c.a(heapsizeofuserarea.o)
                                                  C:\Users\Mihtop\Desktop\ECS\ECS\ide\..\hxdsp1042\epos/libepos_c.a(heap.o)
                                                  C:\Users\Mihtop\Desktop\ECS\ECS\ide\..\hxdsp1042\epos/libepos_c.a(heapfree.o)
___Heap_Block_split                               C:\Users\Mihtop\Desktop\ECS\ECS\ide\..\hxdsp1042\epos/libepos_c.a(heap.o)
___Heap_Free                                      C:\Users\Mihtop\Desktop\ECS\ECS\ide\..\hxdsp1042\epos/libepos_c.a(heapfree.o)
                                                  C:\Users\Mihtop\Desktop\ECS\ECS\ide\..\hxdsp1042\epos/libepos_c.a(wkspace.o)
                                                  C:\Users\Mihtop\Desktop\ECS\ECS\ide\..\hxdsp1042\epos/libepos_c.a(pheapfree.o)
___Heap_Free_list_first                           C:\Users\Mihtop\Desktop\ECS\ECS\ide\..\hxdsp1042\epos/libepos_c.a(heap_inl.o)
                                                  C:\Users\Mihtop\Desktop\ECS\ECS\ide\..\hxdsp1042\epos/libepos_c.a(heapallocate.o)
___Heap_Free_list_head                            C:\Users\Mihtop\Desktop\ECS\ECS\ide\..\hxdsp1042\epos/libepos_c.a(heap_inl.o)
                                                  C:\Users\Mihtop\Desktop\ECS\ECS\ide\..\hxdsp1042\epos/libepos_c.a(heap.o)
                                                  C:\Users\Mihtop\Desktop\ECS\ECS\ide\..\hxdsp1042\epos/libepos_c.a(heapfree.o)
___Heap_Free_list_insert_after                    C:\Users\Mihtop\Desktop\ECS\ECS\ide\..\hxdsp1042\epos/libepos_c.a(heap_inl.o)
                                                  C:\Users\Mihtop\Desktop\ECS\ECS\ide\..\hxdsp1042\epos/libepos_c.a(heap.o)
                                                  C:\Users\Mihtop\Desktop\ECS\ECS\ide\..\hxdsp1042\epos/libepos_c.a(heapfree.o)
___Heap_Free_list_last                            C:\Users\Mihtop\Desktop\ECS\ECS\ide\..\hxdsp1042\epos/libepos_c.a(heap_inl.o)
___Heap_Free_list_remove                          C:\Users\Mihtop\Desktop\ECS\ECS\ide\..\hxdsp1042\epos/libepos_c.a(heap_inl.o)
                                                  C:\Users\Mihtop\Desktop\ECS\ECS\ide\..\hxdsp1042\epos/libepos_c.a(heapresizeblock.o)
                                                  C:\Users\Mihtop\Desktop\ECS\ECS\ide\..\hxdsp1042\epos/libepos_c.a(heap.o)
                                                  C:\Users\Mihtop\Desktop\ECS\ECS\ide\..\hxdsp1042\epos/libepos_c.a(heapfree.o)
___Heap_Free_list_replace                         C:\Users\Mihtop\Desktop\ECS\ECS\ide\..\hxdsp1042\epos/libepos_c.a(heap_inl.o)
                                                  C:\Users\Mihtop\Desktop\ECS\ECS\ide\..\hxdsp1042\epos/libepos_c.a(heap.o)
                                                  C:\Users\Mihtop\Desktop\ECS\ECS\ide\..\hxdsp1042\epos/libepos_c.a(heapfree.o)
___Heap_Free_list_tail                            C:\Users\Mihtop\Desktop\ECS\ECS\ide\..\hxdsp1042\epos/libepos_c.a(heap_inl.o)
                                                  C:\Users\Mihtop\Desktop\ECS\ECS\ide\..\hxdsp1042\epos/libepos_c.a(heapallocate.o)
                                                  C:\Users\Mihtop\Desktop\ECS\ECS\ide\..\hxdsp1042\epos/libepos_c.a(heap.o)
___Heap_Get_size                                  C:\Users\Mihtop\Desktop\ECS\ECS\ide\..\hxdsp1042\epos/libepos_c.a(heap_inl.o)
                                                  C:\Users\Mihtop\Desktop\ECS\ECS\ide\..\hxdsp1042\epos/libepos_c.a(pheapgetsize.o)
___Heap_Initialize                                C:\Users\Mihtop\Desktop\ECS\ECS\ide\..\hxdsp1042\epos/libepos_c.a(heap.o)
                                                  C:\Users\Mihtop\Desktop\ECS\ECS\ide\..\hxdsp1042\epos/libepos_c.a(wkspace.o)
                                                  C:\Users\Mihtop\Desktop\ECS\ECS\ide\..\hxdsp1042\epos/libepos_c.a(protectedheap_inl.o)
___Heap_Is_aligned                                C:\Users\Mihtop\Desktop\ECS\ECS\ide\..\hxdsp1042\epos/libepos_c.a(heap_inl.o)
___Heap_Is_block_in_heap                          C:\Users\Mihtop\Desktop\ECS\ECS\ide\..\hxdsp1042\epos/libepos_c.a(heap_inl.o)
                                                  C:\Users\Mihtop\Desktop\ECS\ECS\ide\..\hxdsp1042\epos/libepos_c.a(heapresizeblock.o)
                                                  C:\Users\Mihtop\Desktop\ECS\ECS\ide\..\hxdsp1042\epos/libepos_c.a(heapsizeofuserarea.o)
                                                  C:\Users\Mihtop\Desktop\ECS\ECS\ide\..\hxdsp1042\epos/libepos_c.a(heapfree.o)
___Heap_Is_free                                   C:\Users\Mihtop\Desktop\ECS\ECS\ide\..\hxdsp1042\epos/libepos_c.a(heap_inl.o)
                                                  C:\Users\Mihtop\Desktop\ECS\ECS\ide\..\hxdsp1042\epos/libepos_c.a(heapresizeblock.o)
                                                  C:\Users\Mihtop\Desktop\ECS\ECS\ide\..\hxdsp1042\epos/libepos_c.a(heap.o)
___Heap_Is_prev_used                              C:\Users\Mihtop\Desktop\ECS\ECS\ide\..\hxdsp1042\epos/libepos_c.a(heap_inl.o)
                                                  C:\Users\Mihtop\Desktop\ECS\ECS\ide\..\hxdsp1042\epos/libepos_c.a(heapsizeofuserarea.o)
                                                  C:\Users\Mihtop\Desktop\ECS\ECS\ide\..\hxdsp1042\epos/libepos_c.a(heap.o)
                                                  C:\Users\Mihtop\Desktop\ECS\ECS\ide\..\hxdsp1042\epos/libepos_c.a(heapfree.o)
___Heap_Is_used                                   C:\Users\Mihtop\Desktop\ECS\ECS\ide\..\hxdsp1042\epos/libepos_c.a(heap_inl.o)
                                                  C:\Users\Mihtop\Desktop\ECS\ECS\ide\..\hxdsp1042\epos/libepos_c.a(heap.o)
___Heap_Max                                       C:\Users\Mihtop\Desktop\ECS\ECS\ide\..\hxdsp1042\epos/libepos_c.a(heap_inl.o)
                                                  C:\Users\Mihtop\Desktop\ECS\ECS\ide\..\hxdsp1042\epos/libepos_c.a(heap.o)
___Heap_Min                                       C:\Users\Mihtop\Desktop\ECS\ECS\ide\..\hxdsp1042\epos/libepos_c.a(heap_inl.o)
___Heap_Prev_block                                C:\Users\Mihtop\Desktop\ECS\ECS\ide\..\hxdsp1042\epos/libepos_c.a(heap_inl.o)
                                                  C:\Users\Mihtop\Desktop\ECS\ECS\ide\..\hxdsp1042\epos/libepos_c.a(heap.o)
___Heap_Resize_block                              C:\Users\Mihtop\Desktop\ECS\ECS\ide\..\hxdsp1042\epos/libepos_c.a(heapresizeblock.o)
                                                  C:\Users\Mihtop\Desktop\ECS\ECS\ide\..\hxdsp1042\epos/libepos_c.a(pheapresizeblock.o)
___Heap_Size_of_alloc_area                        C:\Users\Mihtop\Desktop\ECS\ECS\ide\..\hxdsp1042\epos/libepos_c.a(heapsizeofuserarea.o)
                                                  C:\Users\Mihtop\Desktop\ECS\ECS\ide\..\hxdsp1042\epos/libepos_c.a(pheapgetblocksize.o)
___ISR_Handler_initialization                     C:\Users\Mihtop\Desktop\ECS\ECS\ide\..\hxdsp1042\epos/libepos_c.a(isr.o)
                                                  C:\Users\Mihtop\Desktop\ECS\ECS\ide\..\hxdsp1042\epos/libepos_c.a(exinit.o)
___ISR_Nest_level                                 C:\Users\Mihtop\Desktop\ECS\ECS\ide\..\hxdsp1042\epos/libepos_c.a(exinit.o)
                                                  C:\Users\Mihtop\Desktop\ECS\ECS\ide\..\hxdsp1042\epos/libepos_c.a(_interruptc.o)
                                                  C:\Users\Mihtop\Desktop\ECS\ECS\ide\..\hxdsp1042\epos/libepos_c.a(isr.o)
                                                  C:\Users\Mihtop\Desktop\ECS\ECS\ide\..\hxdsp1042\epos/libepos_c.a(malloc_deferred.o)
                                                  C:\Users\Mihtop\Desktop\ECS\ECS\ide\..\hxdsp1042\epos/libepos_c.a(_realloc.o)
___Internal_Objects                               C:\Users\Mihtop\Desktop\ECS\ECS\ide\..\hxdsp1042\epos/libepos_c.a(exinit.o)
___Internal_error_Occurred                        C:\Users\Mihtop\Desktop\ECS\ECS\ide\..\hxdsp1042\epos/libepos_c.a(interr.o)
                                                  C:\Users\Mihtop\Desktop\ECS\ECS\ide\..\hxdsp1042\epos/libepos_c.a(fatal.o)
                                                  C:\Users\Mihtop\Desktop\ECS\ECS\ide\..\hxdsp1042\epos/libepos_c.a(wkspace.o)
___Internal_errors_What_happened                  C:\Users\Mihtop\Desktop\ECS\ECS\ide\..\hxdsp1042\epos/libepos_c.a(exinit.o)
                                                  C:\Users\Mihtop\Desktop\ECS\ECS\ide\..\hxdsp1042\epos/libepos_c.a(interr.o)
___Objects_Information_table                      C:\Users\Mihtop\Desktop\ECS\ECS\ide\..\hxdsp1042\epos/libepos_c.a(exinit.o)
___PathLocale                                     C:\Users\Mihtop\Desktop\ECS\ECS\ide\..\hxdsp1042\newlib/libc_c.a(locale.o)
___Protected_heap_Allocate                        C:\Users\Mihtop\Desktop\ECS\ECS\ide\..\hxdsp1042\epos/libepos_c.a(protectedheap_inl.o)
                                                  C:\Users\Mihtop\Desktop\ECS\ECS\ide\..\hxdsp1042\epos/libepos_c.a(malloc.o)
___Protected_heap_Allocate_aligned                C:\Users\Mihtop\Desktop\ECS\ECS\ide\..\hxdsp1042\epos/libepos_c.a(protectedheap_inl.o)
___Protected_heap_Allocate_aligned_with_boundary  C:\Users\Mihtop\Desktop\ECS\ECS\ide\..\hxdsp1042\epos/libepos_c.a(pheapallocate.o)
                                                  C:\Users\Mihtop\Desktop\ECS\ECS\ide\..\hxdsp1042\epos/libepos_c.a(protectedheap_inl.o)
___Protected_heap_Free                            C:\Users\Mihtop\Desktop\ECS\ECS\ide\..\hxdsp1042\epos/libepos_c.a(pheapfree.o)
                                                  C:\Users\Mihtop\Desktop\ECS\ECS\ide\..\hxdsp1042\epos/libepos_c.a(free.o)
___Protected_heap_Get_block_size                  C:\Users\Mihtop\Desktop\ECS\ECS\ide\..\hxdsp1042\epos/libepos_c.a(pheapgetblocksize.o)
                                                  C:\Users\Mihtop\Desktop\ECS\ECS\ide\..\hxdsp1042\epos/libepos_c.a(_realloc.o)
___Protected_heap_Get_size                        C:\Users\Mihtop\Desktop\ECS\ECS\ide\..\hxdsp1042\epos/libepos_c.a(pheapgetsize.o)
                                                  C:\Users\Mihtop\Desktop\ECS\ECS\ide\..\hxdsp1042\epos/libepos_c.a(malloc_initialize.o)
___Protected_heap_Initialize                      C:\Users\Mihtop\Desktop\ECS\ECS\ide\..\hxdsp1042\epos/libepos_c.a(protectedheap_inl.o)
                                                  C:\Users\Mihtop\Desktop\ECS\ECS\ide\..\hxdsp1042\epos/libepos_c.a(malloc_initialize.o)
___Protected_heap_Resize_block                    C:\Users\Mihtop\Desktop\ECS\ECS\ide\..\hxdsp1042\epos/libepos_c.a(pheapresizeblock.o)
                                                  C:\Users\Mihtop\Desktop\ECS\ECS\ide\..\hxdsp1042\epos/libepos_c.a(_realloc.o)
___System_state_Current                           C:\Users\Mihtop\Desktop\ECS\ECS\ide\..\hxdsp1042\epos/libepos_c.a(exinit.o)
                                                  C:\Users\Mihtop\Desktop\ECS\ECS\ide\..\hxdsp1042\epos/libepos_c.a(sysstate_inl.o)
___System_state_Get                               C:\Users\Mihtop\Desktop\ECS\ECS\ide\..\hxdsp1042\epos/libepos_c.a(sysstate_inl.o)
                                                  C:\Users\Mihtop\Desktop\ECS\ECS\ide\..\hxdsp1042\epos/libepos_c.a(exinit.o)
                                                  C:\Users\Mihtop\Desktop\ECS\ECS\ide\..\hxdsp1042\epos/libepos_c.a(_realloc.o)
                                                  C:\Users\Mihtop\Desktop\ECS\ECS\ide\..\hxdsp1042\epos/libepos_c.a(malloc.o)
                                                  C:\Users\Mihtop\Desktop\ECS\ECS\ide\..\hxdsp1042\epos/libepos_c.a(free.o)
___System_state_Is_up                             C:\Users\Mihtop\Desktop\ECS\ECS\ide\..\hxdsp1042\epos/libepos_c.a(sysstate_inl.o)
                                                  C:\Users\Mihtop\Desktop\ECS\ECS\ide\..\hxdsp1042\epos/libepos_c.a(_realloc.o)
                                                  C:\Users\Mihtop\Desktop\ECS\ECS\ide\..\hxdsp1042\epos/libepos_c.a(malloc.o)
                                                  C:\Users\Mihtop\Desktop\ECS\ECS\ide\..\hxdsp1042\epos/libepos_c.a(free.o)
___System_state_Set                               C:\Users\Mihtop\Desktop\ECS\ECS\ide\..\hxdsp1042\epos/libepos_c.a(sysstate_inl.o)
                                                  C:\Users\Mihtop\Desktop\ECS\ECS\ide\..\hxdsp1042\epos/libepos_c.a(interr.o)
                                                  C:\Users\Mihtop\Desktop\ECS\ECS\ide\..\hxdsp1042\epos/libepos_c.a(exinit.o)
                                                  C:\Users\Mihtop\Desktop\ECS\ECS\ide\..\hxdsp1042\epos/libepos_c.a(bootcard.o)
___Workspace_Allocate                             C:\Users\Mihtop\Desktop\ECS\ECS\ide\..\hxdsp1042\epos/libepos_c.a(wkspace.o)
___Workspace_Allocate_or_fatal_error              C:\Users\Mihtop\Desktop\ECS\ECS\ide\..\hxdsp1042\epos/libepos_c.a(wkspace.o)
___Workspace_Area                                 C:\Users\Mihtop\Desktop\ECS\ECS\ide\..\hxdsp1042\epos/libepos_c.a(exinit.o)
                                                  C:\Users\Mihtop\Desktop\ECS\ECS\ide\..\hxdsp1042\epos/libepos_c.a(wkspace.o)
___Workspace_Free                                 C:\Users\Mihtop\Desktop\ECS\ECS\ide\..\hxdsp1042\epos/libepos_c.a(wkspace.o)
___Workspace_Handler_initialization               C:\Users\Mihtop\Desktop\ECS\ECS\ide\..\hxdsp1042\epos/libepos_c.a(wkspace.o)
                                                  C:\Users\Mihtop\Desktop\ECS\ECS\ide\..\hxdsp1042\epos/libepos_c.a(exinit.o)
____any_on                                        C:\Users\Mihtop\Desktop\ECS\ECS\ide\..\hxdsp1042\newlib/libc_c.a(mprec.o)
____ascii_wctomb                                  C:\Users\Mihtop\Desktop\ECS\ECS\ide\..\hxdsp1042\newlib/libc_c.a(wctomb_r.o)
____b2d                                           C:\Users\Mihtop\Desktop\ECS\ECS\ide\..\hxdsp1042\newlib/libc_c.a(mprec.o)
____bss_end                                       C:\Users\Mihtop\Desktop\ECS\ECS\ide\\..\hxdsp1042\newlib\crt0_c.o
____bss_start                                     C:\Users\Mihtop\Desktop\ECS\ECS\ide\\..\hxdsp1042\newlib\crt0_c.o
____copybits                                      C:\Users\Mihtop\Desktop\ECS\ECS\ide\..\hxdsp1042\newlib/libc_c.a(mprec.o)
____d2b                                           C:\Users\Mihtop\Desktop\ECS\ECS\ide\..\hxdsp1042\newlib/libc_c.a(mprec.o)
                                                  C:\Users\Mihtop\Desktop\ECS\ECS\ide\..\hxdsp1042\newlib/libc_c.a(dtoa.o)
____errno                                         C:\Users\Mihtop\Desktop\ECS\ECS\ide\..\hxdsp1042\newlib/libc_c.a(errno.o)
                                                  C:\Users\Mihtop\Desktop\ECS\ECS\ide\..\hxdsp1042\epos/libepos_c.a(_realloc.o)
                                                  C:\Users\Mihtop\Desktop\ECS\ECS\ide\..\hxdsp1042\epos/libepos_c.a(_tell.o)
                                                  C:\Users\Mihtop\Desktop\ECS\ECS\ide\..\hxdsp1042\epos/libepos_c.a(ferror.o)
                                                  C:\Users\Mihtop\Desktop\ECS\ECS\ide\..\hxdsp1042\epos/libepos_c.a(malloc.o)
                                                  C:\Users\Mihtop\Desktop\ECS\ECS\ide\..\hxdsp1042\epos/libepos_c.a(close.o)
                                                  C:\Users\Mihtop\Desktop\ECS\ECS\ide\..\hxdsp1042\epos/libepos_c.a(write.o)
                                                  C:\Users\Mihtop\Desktop\ECS\ECS\ide\..\hxdsp1042\epos/libepos_c.a(lseek.o)
                                                  C:\Users\Mihtop\Desktop\ECS\ECS\ide\..\hxdsp1042\epos/libepos_c.a(read.o)
____fpclassifyf                                   C:\Users\Mihtop\Desktop\ECS\ECS\ide\..\hxdsp1042\newlib/libm_c.a(sf_fpclassify.o)
                                                  C:\Users\Mihtop\Desktop\ECS\ECS\ide\..\hxdsp1042\newlib/libc_c.a(vfprintf.o)
____hi0bits                                       C:\Users\Mihtop\Desktop\ECS\ECS\ide\..\hxdsp1042\newlib/libc_c.a(mprec.o)
                                                  C:\Users\Mihtop\Desktop\ECS\ECS\ide\..\hxdsp1042\newlib/libc_c.a(dtoa.o)
____i2b                                           C:\Users\Mihtop\Desktop\ECS\ECS\ide\..\hxdsp1042\newlib/libc_c.a(mprec.o)
                                                  C:\Users\Mihtop\Desktop\ECS\ECS\ide\..\hxdsp1042\newlib/libc_c.a(dtoa.o)
____libbss_end                                    C:\Users\Mihtop\Desktop\ECS\ECS\ide\\..\hxdsp1042\newlib\crt0_c.o
____libbss_start                                  C:\Users\Mihtop\Desktop\ECS\ECS\ide\\..\hxdsp1042\newlib\crt0_c.o
____lo0bits                                       C:\Users\Mihtop\Desktop\ECS\ECS\ide\..\hxdsp1042\newlib/libc_c.a(mprec.o)
____locale_charset                                C:\Users\Mihtop\Desktop\ECS\ECS\ide\..\hxdsp1042\newlib/libc_c.a(locale.o)
                                                  C:\Users\Mihtop\Desktop\ECS\ECS\ide\..\hxdsp1042\newlib/libc_c.a(wctomb_r.o)
                                                  C:\Users\Mihtop\Desktop\ECS\ECS\ide\..\hxdsp1042\newlib/libc_c.a(wcrtomb.o)
____locale_cjk_lang                               C:\Users\Mihtop\Desktop\ECS\ECS\ide\..\hxdsp1042\newlib/libc_c.a(locale.o)
____locale_mb_cur_max                             C:\Users\Mihtop\Desktop\ECS\ECS\ide\..\hxdsp1042\newlib/libc_c.a(locale.o)
                                                  C:\Users\Mihtop\Desktop\ECS\ECS\ide\..\hxdsp1042\newlib/libc_c.a(fputwc.o)
____locale_msgcharset                             C:\Users\Mihtop\Desktop\ECS\ECS\ide\..\hxdsp1042\newlib/libc_c.a(locale.o)
____log2table                                     C:\Users\Mihtop\Desktop\ECS\ECS\ide\..\hxdsp1042\epos/libepos_c.a(exinit.o)
____lshift                                        C:\Users\Mihtop\Desktop\ECS\ECS\ide\..\hxdsp1042\newlib/libc_c.a(mprec.o)
                                                  C:\Users\Mihtop\Desktop\ECS\ECS\ide\..\hxdsp1042\newlib/libc_c.a(dtoa.o)
____mb_cur_max                                    C:\Users\Mihtop\Desktop\ECS\ECS\ide\..\hxdsp1042\newlib/libc_c.a(locale.o)
____mcmp                                          C:\Users\Mihtop\Desktop\ECS\ECS\ide\..\hxdsp1042\newlib/libc_c.a(mprec.o)
                                                  C:\Users\Mihtop\Desktop\ECS\ECS\ide\..\hxdsp1042\newlib/libc_c.a(dtoa.o)
____mdiff                                         C:\Users\Mihtop\Desktop\ECS\ECS\ide\..\hxdsp1042\newlib/libc_c.a(mprec.o)
                                                  C:\Users\Mihtop\Desktop\ECS\ECS\ide\..\hxdsp1042\newlib/libc_c.a(dtoa.o)
____mlocale_changed                               C:\Users\Mihtop\Desktop\ECS\ECS\ide\..\hxdsp1042\newlib/libc_c.a(locale.o)
____mprec_bigtens                                 C:\Users\Mihtop\Desktop\ECS\ECS\ide\..\hxdsp1042\newlib/libc_c.a(mprec.o)
                                                  C:\Users\Mihtop\Desktop\ECS\ECS\ide\..\hxdsp1042\newlib/libc_c.a(dtoa.o)
____mprec_tens                                    C:\Users\Mihtop\Desktop\ECS\ECS\ide\..\hxdsp1042\newlib/libc_c.a(mprec.o)
                                                  C:\Users\Mihtop\Desktop\ECS\ECS\ide\..\hxdsp1042\newlib/libc_c.a(dtoa.o)
____mprec_tinytens                                C:\Users\Mihtop\Desktop\ECS\ECS\ide\..\hxdsp1042\newlib/libc_c.a(mprec.o)
____multadd                                       C:\Users\Mihtop\Desktop\ECS\ECS\ide\..\hxdsp1042\newlib/libc_c.a(mprec.o)
                                                  C:\Users\Mihtop\Desktop\ECS\ECS\ide\..\hxdsp1042\newlib/libc_c.a(dtoa.o)
____multiply                                      C:\Users\Mihtop\Desktop\ECS\ECS\ide\..\hxdsp1042\newlib/libc_c.a(mprec.o)
                                                  C:\Users\Mihtop\Desktop\ECS\ECS\ide\..\hxdsp1042\newlib/libc_c.a(dtoa.o)
____nlocale_changed                               C:\Users\Mihtop\Desktop\ECS\ECS\ide\..\hxdsp1042\newlib/libc_c.a(locale.o)
____pow5mult                                      C:\Users\Mihtop\Desktop\ECS\ECS\ide\..\hxdsp1042\newlib/libc_c.a(mprec.o)
                                                  C:\Users\Mihtop\Desktop\ECS\ECS\ide\..\hxdsp1042\newlib/libc_c.a(dtoa.o)
____ratio                                         C:\Users\Mihtop\Desktop\ECS\ECS\ide\..\hxdsp1042\newlib/libc_c.a(mprec.o)
____s2b                                           C:\Users\Mihtop\Desktop\ECS\ECS\ide\..\hxdsp1042\newlib/libc_c.a(mprec.o)
____sclose                                        C:\Users\Mihtop\Desktop\ECS\ECS\ide\..\hxdsp1042\newlib/libc_c.a(stdio.o)
                                                  C:\Users\Mihtop\Desktop\ECS\ECS\ide\..\hxdsp1042\newlib/libc_c.a(findfp.o)
____seofread                                      C:\Users\Mihtop\Desktop\ECS\ECS\ide\..\hxdsp1042\newlib/libc_c.a(stdio.o)
____sflush_r                                      C:\Users\Mihtop\Desktop\ECS\ECS\ide\..\hxdsp1042\newlib/libc_c.a(fflush.o)
____sfmoreglue                                    C:\Users\Mihtop\Desktop\ECS\ECS\ide\..\hxdsp1042\newlib/libc_c.a(findfp.o)
____sfvwrite_r                                    C:\Users\Mihtop\Desktop\ECS\ECS\ide\..\hxdsp1042\newlib/libc_c.a(fvwrite.o)
                                                  C:\Users\Mihtop\Desktop\ECS\ECS\ide\..\hxdsp1042\newlib/libc_c.a(vfiprintf.o)
____sinit                                         C:\Users\Mihtop\Desktop\ECS\ECS\ide\..\hxdsp1042\newlib/libc_c.a(findfp.o)
                                                  C:\Users\Mihtop\Desktop\ECS\ECS\ide\..\hxdsp1042\newlib/libc_c.a(wbuf.o)
                                                  C:\Users\Mihtop\Desktop\ECS\ECS\ide\..\hxdsp1042\newlib/libc_c.a(fputwc.o)
                                                  C:\Users\Mihtop\Desktop\ECS\ECS\ide\..\hxdsp1042\newlib/libc_c.a(fclose.o)
                                                  C:\Users\Mihtop\Desktop\ECS\ECS\ide\..\hxdsp1042\newlib/libc_c.a(vfiprintf.o)
                                                  C:\Users\Mihtop\Desktop\ECS\ECS\ide\..\hxdsp1042\newlib/libc_c.a(wsetup.o)
                                                  C:\Users\Mihtop\Desktop\ECS\ECS\ide\..\hxdsp1042\newlib/libc_c.a(fflush.o)
                                                  C:\Users\Mihtop\Desktop\ECS\ECS\ide\..\hxdsp1042\newlib/libc_c.a(vfprintf.o)
____smakebuf_r                                    C:\Users\Mihtop\Desktop\ECS\ECS\ide\..\hxdsp1042\newlib/libc_c.a(makebuf.o)
                                                  C:\Users\Mihtop\Desktop\ECS\ECS\ide\..\hxdsp1042\newlib/libc_c.a(wsetup.o)
____sprint_r                                      C:\Users\Mihtop\Desktop\ECS\ECS\ide\..\hxdsp1042\newlib/libc_c.a(vfiprintf.o)
                                                  C:\Users\Mihtop\Desktop\ECS\ECS\ide\..\hxdsp1042\newlib/libc_c.a(vfprintf.o)
____sread                                         C:\Users\Mihtop\Desktop\ECS\ECS\ide\..\hxdsp1042\newlib/libc_c.a(stdio.o)
                                                  C:\Users\Mihtop\Desktop\ECS\ECS\ide\..\hxdsp1042\newlib/libc_c.a(findfp.o)
____sseek                                         C:\Users\Mihtop\Desktop\ECS\ECS\ide\..\hxdsp1042\newlib/libc_c.a(stdio.o)
                                                  C:\Users\Mihtop\Desktop\ECS\ECS\ide\..\hxdsp1042\newlib/libc_c.a(makebuf.o)
                                                  C:\Users\Mihtop\Desktop\ECS\ECS\ide\..\hxdsp1042\newlib/libc_c.a(findfp.o)
____stack_start                                   C:\Users\Mihtop\Desktop\ECS\ECS\ide\\..\hxdsp1042\newlib\crt0_c.o
____swbuf_r                                       C:\Users\Mihtop\Desktop\ECS\ECS\ide\..\hxdsp1042\newlib/libc_c.a(wbuf.o)
                                                  C:\Users\Mihtop\Desktop\ECS\ECS\ide\..\hxdsp1042\newlib/libc_c.a(fputwc.o)
____swrite                                        C:\Users\Mihtop\Desktop\ECS\ECS\ide\..\hxdsp1042\newlib/libc_c.a(stdio.o)
                                                  C:\Users\Mihtop\Desktop\ECS\ECS\ide\..\hxdsp1042\newlib/libc_c.a(findfp.o)
____swsetup_r                                     C:\Users\Mihtop\Desktop\ECS\ECS\ide\..\hxdsp1042\newlib/libc_c.a(wsetup.o)
                                                  C:\Users\Mihtop\Desktop\ECS\ECS\ide\..\hxdsp1042\newlib/libc_c.a(wbuf.o)
                                                  C:\Users\Mihtop\Desktop\ECS\ECS\ide\..\hxdsp1042\newlib/libc_c.a(fvwrite.o)
                                                  C:\Users\Mihtop\Desktop\ECS\ECS\ide\..\hxdsp1042\newlib/libc_c.a(vfiprintf.o)
                                                  C:\Users\Mihtop\Desktop\ECS\ECS\ide\..\hxdsp1042\newlib/libc_c.a(vfprintf.o)
____wctomb                                        C:\Users\Mihtop\Desktop\ECS\ECS\ide\..\hxdsp1042\newlib/libc_c.a(wctomb_r.o)
                                                  C:\Users\Mihtop\Desktop\ECS\ECS\ide\..\hxdsp1042\newlib/libc_c.a(wcrtomb.o)
___calloc                                         C:\Users\Mihtop\Desktop\ECS\ECS\ide\..\hxdsp1042\epos/libepos_c.a(_calloc.o)
                                                  C:\Users\Mihtop\Desktop\ECS\ECS\ide\..\hxdsp1042\epos/libepos_c.a(_calloc_r.o)
___calloc_r                                       C:\Users\Mihtop\Desktop\ECS\ECS\ide\..\hxdsp1042\epos/libepos_c.a(_calloc_r.o)
                                                  C:\Users\Mihtop\Desktop\ECS\ECS\ide\..\hxdsp1042\newlib/libc_c.a(mprec.o)
___cleanup                                        C:\Users\Mihtop\Desktop\ECS\ECS\ide\..\hxdsp1042\newlib/libc_c.a(findfp.o)
___cleanup_r                                      C:\Users\Mihtop\Desktop\ECS\ECS\ide\..\hxdsp1042\newlib/libc_c.a(findfp.o)
                                                  C:\Users\Mihtop\Desktop\ECS\ECS\ide\..\hxdsp1042\newlib/libc_c.a(makebuf.o)
___close                                          C:\Users\Mihtop\Desktop\ECS\ECS\ide\..\hxdsp1042\epos/libepos_c.a(close.o)
___close_r                                        C:\Users\Mihtop\Desktop\ECS\ECS\ide\..\hxdsp1042\epos/libepos_c.a(close.o)
                                                  C:\Users\Mihtop\Desktop\ECS\ECS\ide\..\hxdsp1042\newlib/libc_c.a(stdio.o)
___debug_data                                     C:\Users\Mihtop\Desktop\ECS\ECS\ide\..\hxdsp1042\epos/libepos_c.a(hostcomm.o)
___dtoa_r                                         C:\Users\Mihtop\Desktop\ECS\ECS\ide\..\hxdsp1042\newlib/libc_c.a(dtoa.o)
                                                  C:\Users\Mihtop\Desktop\ECS\ECS\ide\..\hxdsp1042\newlib/libc_c.a(vfprintf.o)
___eof                                            C:\Users\Mihtop\Desktop\ECS\ECS\ide\..\hxdsp1042\epos/libepos_c.a(_eof.o)
                                                  C:\Users\Mihtop\Desktop\ECS\ECS\ide\..\hxdsp1042\epos/libepos_c.a(write.o)
                                                  C:\Users\Mihtop\Desktop\ECS\ECS\ide\..\hxdsp1042\epos/libepos_c.a(read.o)
___event_table                                    C:\Users\Mihtop\Desktop\ECS\ECS\ide\..\hxdsp1042\epos/libepos_c.a(_interrupt.o)
                                                  C:\Users\Mihtop\Desktop\ECS\ECS\ide\..\hxdsp1042\epos/libepos_c.a(intrdsp.o)
___fclose_r                                       C:\Users\Mihtop\Desktop\ECS\ECS\ide\..\hxdsp1042\newlib/libc_c.a(fclose.o)
___ferror                                         C:\Users\Mihtop\Desktop\ECS\ECS\ide\..\hxdsp1042\epos/libepos_c.a(ferror.o)
                                                  C:\Users\Mihtop\Desktop\ECS\ECS\ide\..\hxdsp1042\epos/libepos_c.a(_tell.o)
                                                  C:\Users\Mihtop\Desktop\ECS\ECS\ide\..\hxdsp1042\epos/libepos_c.a(close.o)
                                                  C:\Users\Mihtop\Desktop\ECS\ECS\ide\..\hxdsp1042\epos/libepos_c.a(write.o)
                                                  C:\Users\Mihtop\Desktop\ECS\ECS\ide\..\hxdsp1042\epos/libepos_c.a(lseek.o)
                                                  C:\Users\Mihtop\Desktop\ECS\ECS\ide\..\hxdsp1042\epos/libepos_c.a(read.o)
___fflush_r                                       C:\Users\Mihtop\Desktop\ECS\ECS\ide\..\hxdsp1042\newlib/libc_c.a(fflush.o)
                                                  C:\Users\Mihtop\Desktop\ECS\ECS\ide\..\hxdsp1042\newlib/libc_c.a(wbuf.o)
                                                  C:\Users\Mihtop\Desktop\ECS\ECS\ide\..\hxdsp1042\newlib/libc_c.a(fvwrite.o)
                                                  C:\Users\Mihtop\Desktop\ECS\ECS\ide\..\hxdsp1042\newlib/libc_c.a(fclose.o)
                                                  C:\Users\Mihtop\Desktop\ECS\ECS\ide\..\hxdsp1042\newlib/libc_c.a(vfiprintf.o)
                                                  C:\Users\Mihtop\Desktop\ECS\ECS\ide\..\hxdsp1042\newlib/libc_c.a(vfprintf.o)
___finit                                          C:\Users\Mihtop\Desktop\ECS\ECS\ide\..\hxdsp1042\epos/libepos_c.a(_finit.o)
                                                  C:\Users\Mihtop\Desktop\ECS\ECS\ide\\..\hxdsp1042\newlib\crt0_c.o
___fputwc_r                                       C:\Users\Mihtop\Desktop\ECS\ECS\ide\..\hxdsp1042\newlib/libc_c.a(fputwc.o)
                                                  C:\Users\Mihtop\Desktop\ECS\ECS\ide\..\hxdsp1042\newlib/libc_c.a(vfiprintf.o)
___free_r                                         C:\Users\Mihtop\Desktop\ECS\ECS\ide\..\hxdsp1042\epos/libepos_c.a(_free_r.o)
                                                  C:\Users\Mihtop\Desktop\ECS\ECS\ide\..\hxdsp1042\newlib/libc_c.a(fvwrite.o)
                                                  C:\Users\Mihtop\Desktop\ECS\ECS\ide\..\hxdsp1042\newlib/libc_c.a(fclose.o)
                                                  C:\Users\Mihtop\Desktop\ECS\ECS\ide\..\hxdsp1042\newlib/libc_c.a(vfiprintf.o)
                                                  C:\Users\Mihtop\Desktop\ECS\ECS\ide\..\hxdsp1042\newlib/libc_c.a(wsetup.o)
                                                  C:\Users\Mihtop\Desktop\ECS\ECS\ide\..\hxdsp1042\newlib/libc_c.a(fflush.o)
                                                  C:\Users\Mihtop\Desktop\ECS\ECS\ide\..\hxdsp1042\newlib/libc_c.a(vfprintf.o)
___fstat                                          C:\Users\Mihtop\Desktop\ECS\ECS\ide\..\hxdsp1042\epos/libepos_c.a(fstat.o)
___fstat_r                                        C:\Users\Mihtop\Desktop\ECS\ECS\ide\..\hxdsp1042\epos/libepos_c.a(fstat.o)
                                                  C:\Users\Mihtop\Desktop\ECS\ECS\ide\..\hxdsp1042\newlib/libc_c.a(makebuf.o)
___fwalk                                          C:\Users\Mihtop\Desktop\ECS\ECS\ide\..\hxdsp1042\newlib/libc_c.a(fwalk.o)
                                                  C:\Users\Mihtop\Desktop\ECS\ECS\ide\..\hxdsp1042\newlib/libc_c.a(findfp.o)
___fwalk_reent                                    C:\Users\Mihtop\Desktop\ECS\ECS\ide\..\hxdsp1042\newlib/libc_c.a(fwalk.o)
                                                  C:\Users\Mihtop\Desktop\ECS\ECS\ide\..\hxdsp1042\newlib/libc_c.a(fflush.o)
___gettimeofday_r                                 C:\Users\Mihtop\Desktop\ECS\ECS\ide\..\hxdsp1042\epos/libepos_c.a(unsupport_newlib.o)
___global_impure_ptr                              C:\Users\Mihtop\Desktop\ECS\ECS\ide\..\hxdsp1042\newlib/libc_c.a(impure.o)
                                                  C:\Users\Mihtop\Desktop\ECS\ECS\ide\..\hxdsp1042\newlib/libc_c.a(findfp.o)
                                                  C:\Users\Mihtop\Desktop\ECS\ECS\ide\..\hxdsp1042\newlib/libc_c.a(fflush.o)
___global_pserver                                 C:\Users\Mihtop\Desktop\ECS\ECS\ide\..\hxdsp1042\epos/libepos_c.a(hostcomm.o)
___impure_ptr                                     C:\Users\Mihtop\Desktop\ECS\ECS\ide\..\hxdsp1042\newlib/libc_c.a(impure.o)
                                                  C:\Users\Mihtop\Desktop\ECS\ECS\ide\..\hxdsp1042\newlib/libc_c.a(errno.o)
                                                  C:\Users\Mihtop\Desktop\ECS\ECS\ide\..\hxdsp1042\newlib/libc_c.a(wbuf.o)
                                                  C:\Users\Mihtop\Desktop\ECS\ECS\ide\..\hxdsp1042\newlib/libc_c.a(wcrtomb.o)
                                                  C:\Users\Mihtop\Desktop\ECS\ECS\ide\..\hxdsp1042\newlib/libc_c.a(fputwc.o)
                                                  C:\Users\Mihtop\Desktop\ECS\ECS\ide\..\hxdsp1042\newlib/libc_c.a(fclose.o)
                                                  C:\Users\Mihtop\Desktop\ECS\ECS\ide\..\hxdsp1042\newlib/libc_c.a(vfiprintf.o)
                                                  C:\Users\Mihtop\Desktop\ECS\ECS\ide\..\hxdsp1042\newlib/libc_c.a(wsetup.o)
                                                  C:\Users\Mihtop\Desktop\ECS\ECS\ide\..\hxdsp1042\newlib/libc_c.a(locale.o)
                                                  C:\Users\Mihtop\Desktop\ECS\ECS\ide\..\hxdsp1042\newlib/libc_c.a(fflush.o)
                                                  C:\Users\Mihtop\Desktop\ECS\ECS\ide\..\hxdsp1042\newlib/libc_c.a(vfprintf.o)
                                                  C:\Users\Mihtop\Desktop\ECS\ECS\ide\..\hxdsp1042\newlib/libc_c.a(clock.o)
                                                  C:\Users\Mihtop\Desktop\ECS\ECS\ide\..\hxdsp1042\newlib/libc_c.a(printf.o)
___interrupt_table                                C:\Users\Mihtop\Desktop\ECS\ECS\ide\..\hxdsp1042\epos/libepos_c.a(_interrupt.o)
                                                  C:\Users\Mihtop\Desktop\ECS\ECS\ide\..\hxdsp1042\epos/libepos_c.a(start_interrupt.o)
                                                  C:\Users\Mihtop\Desktop\ECS\ECS\ide\..\hxdsp1042\epos/libepos_c.a(_interruptc.o)
                                                  C:\Users\Mihtop\Desktop\ECS\ECS\ide\..\hxdsp1042\epos/libepos_c.a(interruptc.o)
___interrupts                                     C:\Users\Mihtop\Desktop\ECS\ECS\ide\..\hxdsp1042\epos/libepos_c.a(_interrupt.o)
                                                  C:\Users\Mihtop\Desktop\ECS\ECS\ide\..\hxdsp1042\epos/libepos_c.a(start_interrupt.o)
                                                  C:\Users\Mihtop\Desktop\ECS\ECS\ide\..\hxdsp1042\epos/libepos_c.a(interruptc.o)
___iobuffer                                       C:\Users\Mihtop\Desktop\ECS\ECS\ide\..\hxdsp1042\epos/libepos_c.a(hostcomm.o)
___isatty                                         C:\Users\Mihtop\Desktop\ECS\ECS\ide\..\hxdsp1042\epos/libepos_c.a(_isatty.o)
___isatty_r                                       C:\Users\Mihtop\Desktop\ECS\ECS\ide\..\hxdsp1042\epos/libepos_c.a(_isatty.o)
                                                  C:\Users\Mihtop\Desktop\ECS\ECS\ide\..\hxdsp1042\newlib/libc_c.a(makebuf.o)
___iserver2                                       C:\Users\Mihtop\Desktop\ECS\ECS\ide\..\hxdsp1042\epos/libepos_c.a(hostcomm.o)
___localeconv_r                                   C:\Users\Mihtop\Desktop\ECS\ECS\ide\..\hxdsp1042\newlib/libc_c.a(locale.o)
                                                  C:\Users\Mihtop\Desktop\ECS\ECS\ide\..\hxdsp1042\newlib/libc_c.a(vfprintf.o)
___lseek                                          C:\Users\Mihtop\Desktop\ECS\ECS\ide\..\hxdsp1042\epos/libepos_c.a(lseek.o)
___lseek_r                                        C:\Users\Mihtop\Desktop\ECS\ECS\ide\..\hxdsp1042\epos/libepos_c.a(lseek.o)
                                                  C:\Users\Mihtop\Desktop\ECS\ECS\ide\..\hxdsp1042\newlib/libc_c.a(stdio.o)
___malloc_r                                       C:\Users\Mihtop\Desktop\ECS\ECS\ide\..\hxdsp1042\epos/libepos_c.a(_malloc_r.o)
                                                  C:\Users\Mihtop\Desktop\ECS\ECS\ide\..\hxdsp1042\newlib/libc_c.a(fvwrite.o)
                                                  C:\Users\Mihtop\Desktop\ECS\ECS\ide\..\hxdsp1042\newlib/libc_c.a(makebuf.o)
                                                  C:\Users\Mihtop\Desktop\ECS\ECS\ide\..\hxdsp1042\newlib/libc_c.a(findfp.o)
___maxpacksz                                      C:\Users\Mihtop\Desktop\ECS\ECS\ide\..\hxdsp1042\epos/libepos_c.a(hostcomm.o)
                                                  C:\Users\Mihtop\Desktop\ECS\ECS\ide\..\hxdsp1042\epos/libepos_c.a(write.o)
                                                  C:\Users\Mihtop\Desktop\ECS\ECS\ide\..\hxdsp1042\epos/libepos_c.a(read.o)
___mprec_log10                                    C:\Users\Mihtop\Desktop\ECS\ECS\ide\..\hxdsp1042\newlib/libc_c.a(mprec.o)
___printf_r                                       C:\Users\Mihtop\Desktop\ECS\ECS\ide\..\hxdsp1042\newlib/libc_c.a(printf.o)
___read                                           C:\Users\Mihtop\Desktop\ECS\ECS\ide\..\hxdsp1042\epos/libepos_c.a(read.o)
___read_r                                         C:\Users\Mihtop\Desktop\ECS\ECS\ide\..\hxdsp1042\epos/libepos_c.a(read.o)
                                                  C:\Users\Mihtop\Desktop\ECS\ECS\ide\..\hxdsp1042\newlib/libc_c.a(stdio.o)
___realloc                                        C:\Users\Mihtop\Desktop\ECS\ECS\ide\..\hxdsp1042\epos/libepos_c.a(_realloc.o)
                                                  C:\Users\Mihtop\Desktop\ECS\ECS\ide\..\hxdsp1042\epos/libepos_c.a(_realloc_r.o)
___realloc_r                                      C:\Users\Mihtop\Desktop\ECS\ECS\ide\..\hxdsp1042\epos/libepos_c.a(_realloc_r.o)
                                                  C:\Users\Mihtop\Desktop\ECS\ECS\ide\..\hxdsp1042\newlib/libc_c.a(fvwrite.o)
___setlocale_r                                    C:\Users\Mihtop\Desktop\ECS\ECS\ide\..\hxdsp1042\newlib/libc_c.a(locale.o)
___systime                                        C:\Users\Mihtop\Desktop\ECS\ECS\ide\..\hxdsp1042\epos/libepos_c.a(hostcomm.o)
___tell                                           C:\Users\Mihtop\Desktop\ECS\ECS\ide\..\hxdsp1042\epos/libepos_c.a(_tell.o)
                                                  C:\Users\Mihtop\Desktop\ECS\ECS\ide\..\hxdsp1042\epos/libepos_c.a(lseek.o)
___times_r                                        C:\Users\Mihtop\Desktop\ECS\ECS\ide\..\hxdsp1042\epos/libepos_c.a(unsupport_newlib.o)
                                                  C:\Users\Mihtop\Desktop\ECS\ECS\ide\..\hxdsp1042\newlib/libc_c.a(clock.o)
___vfiprintf_r                                    C:\Users\Mihtop\Desktop\ECS\ECS\ide\..\hxdsp1042\newlib/libc_c.a(vfiprintf.o)
___vfprintf_r                                     C:\Users\Mihtop\Desktop\ECS\ECS\ide\..\hxdsp1042\newlib/libc_c.a(vfprintf.o)
                                                  C:\Users\Mihtop\Desktop\ECS\ECS\ide\..\hxdsp1042\newlib/libc_c.a(printf.o)
___wcrtomb_r                                      C:\Users\Mihtop\Desktop\ECS\ECS\ide\..\hxdsp1042\newlib/libc_c.a(wcrtomb.o)
                                                  C:\Users\Mihtop\Desktop\ECS\ECS\ide\..\hxdsp1042\newlib/libc_c.a(fputwc.o)
___wctomb_r                                       C:\Users\Mihtop\Desktop\ECS\ECS\ide\..\hxdsp1042\newlib/libc_c.a(wctomb_r.o)
___write                                          C:\Users\Mihtop\Desktop\ECS\ECS\ide\..\hxdsp1042\epos/libepos_c.a(write.o)
___write_r                                        C:\Users\Mihtop\Desktop\ECS\ECS\ide\..\hxdsp1042\epos/libepos_c.a(write.o)
                                                  C:\Users\Mihtop\Desktop\ECS\ECS\ide\..\hxdsp1042\newlib/libc_c.a(stdio.o)
__a                                               ./init.o
__b                                               ./init.o
__bootcard                                        C:\Users\Mihtop\Desktop\ECS\ECS\ide\..\hxdsp1042\epos/libepos_c.a(bootcard.o)
                                                  C:\Users\Mihtop\Desktop\ECS\ECS\ide\..\hxdsp1042\epos/libepos_c.a(main.o)
__bsp_boot_cmdline                                C:\Users\Mihtop\Desktop\ECS\ECS\ide\..\hxdsp1042\epos/libepos_c.a(bootcard.o)
__bsp_cleanup                                     C:\Users\Mihtop\Desktop\ECS\ECS\ide\..\hxdsp1042\epos/libepos_c.a(bspclean.o)
                                                  C:\Users\Mihtop\Desktop\ECS\ECS\ide\..\hxdsp1042\epos/libepos_c.a(bootcard.o)
__bsp_get_work_area                               C:\Users\Mihtop\Desktop\ECS\ECS\ide\..\hxdsp1042\epos/libepos_c.a(bspgetworkarea.o)
                                                  C:\Users\Mihtop\Desktop\ECS\ECS\ide\..\hxdsp1042\epos/libepos_c.a(bootcard.o)
__bsp_libc_init                                   C:\Users\Mihtop\Desktop\ECS\ECS\ide\..\hxdsp1042\epos/libepos_c.a(bsplibc.o)
                                                  C:\Users\Mihtop\Desktop\ECS\ECS\ide\..\hxdsp1042\epos/libepos_c.a(bootcard.o)
__bsp_postdriver_hook                             C:\Users\Mihtop\Desktop\ECS\ECS\ide\..\hxdsp1042\epos/libepos_c.a(bsppost.o)
                                                  C:\Users\Mihtop\Desktop\ECS\ECS\ide\..\hxdsp1042\epos/libepos_c.a(bootcard.o)
__bsp_predriver_hook                              C:\Users\Mihtop\Desktop\ECS\ECS\ide\..\hxdsp1042\epos/libepos_c.a(bsppredriverhook.o)
                                                  C:\Users\Mihtop\Desktop\ECS\ECS\ide\..\hxdsp1042\epos/libepos_c.a(bootcard.o)
__bsp_pretasking_hook                             C:\Users\Mihtop\Desktop\ECS\ECS\ide\..\hxdsp1042\epos/libepos_c.a(bsppretaskinghook.o)
                                                  C:\Users\Mihtop\Desktop\ECS\ECS\ide\..\hxdsp1042\epos/libepos_c.a(bootcard.o)
__bsp_start                                       ./bsp/bspstart.o
                                                  C:\Users\Mihtop\Desktop\ECS\ECS\ide\..\hxdsp1042\epos/libepos_c.a(bootcard.o)
__bw_cfft                                         ./bw_cvfft_f.o
__bw_cvabs_f                                      ./bw_cvabs_f.o
__bw_cvifft_f                                     ./bw_cvifft_f.o
__bwdsp_disable_interrupt                         C:\Users\Mihtop\Desktop\ECS\ECS\ide\..\hxdsp1042\epos/libepos_c.a(cpu_asm.o)
                                                  C:\Users\Mihtop\Desktop\ECS\ECS\ide\..\hxdsp1042\epos/libepos_c.a(chainget.o)
                                                  C:\Users\Mihtop\Desktop\ECS\ECS\ide\..\hxdsp1042\epos/libepos_c.a(chainappend.o)
                                                  C:\Users\Mihtop\Desktop\ECS\ECS\ide\..\hxdsp1042\epos/libepos_c.a(chaininsert.o)
                                                  C:\Users\Mihtop\Desktop\ECS\ECS\ide\..\hxdsp1042\epos/libepos_c.a(bootcard.o)
__bwdsp_enable_interrupt                          C:\Users\Mihtop\Desktop\ECS\ECS\ide\..\hxdsp1042\epos/libepos_c.a(cpu_asm.o)
                                                  C:\Users\Mihtop\Desktop\ECS\ECS\ide\..\hxdsp1042\epos/libepos_c.a(chainget.o)
                                                  C:\Users\Mihtop\Desktop\ECS\ECS\ide\..\hxdsp1042\epos/libepos_c.a(chainappend.o)
                                                  C:\Users\Mihtop\Desktop\ECS\ECS\ide\..\hxdsp1042\epos/libepos_c.a(chaininsert.o)
                                                  C:\Users\Mihtop\Desktop\ECS\ECS\ide\..\hxdsp1042\epos/libepos_c.a(bootcard.o)
__clock                                           C:\Users\Mihtop\Desktop\ECS\ECS\ide\..\hxdsp1042\newlib/libc_c.a(clock.o)
                                                  ./init.o
__complex_multi                                   ./complex_multi.o
__cos_mx                                          ./init.o
__div_func                                        ./div_func.o
__dsp_intrcleareventmap                           C:\Users\Mihtop\Desktop\ECS\ECS\ide\..\hxdsp1042\epos/libepos_c.a(intrdsp.o)
__dsp_intrseteventmap                             C:\Users\Mihtop\Desktop\ECS\ECS\ide\..\hxdsp1042\epos/libepos_c.a(intrdsp.o)
                                                  C:\Users\Mihtop\Desktop\ECS\ECS\ide\..\hxdsp1042\epos/libepos_c.a(ckinit.o)
__epos_ada_self                                   C:\Users\Mihtop\Desktop\ECS\ECS\ide\..\hxdsp1042\epos/libepos_c.a(exinit.o)
__epos_chain_append                               C:\Users\Mihtop\Desktop\ECS\ECS\ide\..\hxdsp1042\epos/libepos_c.a(corechain_inl.o)
                                                  C:\Users\Mihtop\Desktop\ECS\ECS\ide\..\hxdsp1042\epos/libepos_c.a(malloc_deferred.o)
__epos_chain_get                                  C:\Users\Mihtop\Desktop\ECS\ECS\ide\..\hxdsp1042\epos/libepos_c.a(corechain_inl.o)
                                                  C:\Users\Mihtop\Desktop\ECS\ECS\ide\..\hxdsp1042\epos/libepos_c.a(malloc_deferred.o)
__epos_chain_initialize_empty                     C:\Users\Mihtop\Desktop\ECS\ECS\ide\..\hxdsp1042\epos/libepos_c.a(corechain_inl.o)
                                                  C:\Users\Mihtop\Desktop\ECS\ECS\ide\..\hxdsp1042\epos/libepos_c.a(malloc_deferred.o)
__epos_fatal_error_occurred                       C:\Users\Mihtop\Desktop\ECS\ECS\ide\..\hxdsp1042\epos/libepos_c.a(fatal.o)
                                                  C:\Users\Mihtop\Desktop\ECS\ECS\ide\..\hxdsp1042\epos/libepos_c.a(malloc_initialize.o)
__epos_initialize_before_drivers                  C:\Users\Mihtop\Desktop\ECS\ECS\ide\..\hxdsp1042\epos/libepos_c.a(exinit.o)
                                                  C:\Users\Mihtop\Desktop\ECS\ECS\ide\..\hxdsp1042\epos/libepos_c.a(bootcard.o)
__epos_initialize_data_structures                 C:\Users\Mihtop\Desktop\ECS\ECS\ide\..\hxdsp1042\epos/libepos_c.a(exinit.o)
                                                  C:\Users\Mihtop\Desktop\ECS\ECS\ide\..\hxdsp1042\epos/libepos_c.a(bootcard.o)
__epos_initialize_device_drivers                  C:\Users\Mihtop\Desktop\ECS\ECS\ide\..\hxdsp1042\epos/libepos_c.a(exinit.o)
                                                  C:\Users\Mihtop\Desktop\ECS\ECS\ide\..\hxdsp1042\epos/libepos_c.a(bootcard.o)
__epos_libio_number_iops                          ./init.o
__epos_malloc_dirty_helper                        ./init.o
                                                  C:\Users\Mihtop\Desktop\ECS\ECS\ide\..\hxdsp1042\epos/libepos_c.a(malloc.o)
__epos_malloc_sbrk_helpers                        ./init.o
                                                  C:\Users\Mihtop\Desktop\ECS\ECS\ide\..\hxdsp1042\epos/libepos_c.a(malloc_initialize.o)
                                                  C:\Users\Mihtop\Desktop\ECS\ECS\ide\..\hxdsp1042\epos/libepos_c.a(malloc.o)
__epos_malloc_statistics                          C:\Users\Mihtop\Desktop\ECS\ECS\ide\..\hxdsp1042\epos/libepos_c.a(malloc_initialize.o)
                                                  C:\Users\Mihtop\Desktop\ECS\ECS\ide\..\hxdsp1042\epos/libepos_c.a(_calloc.o)
                                                  C:\Users\Mihtop\Desktop\ECS\ECS\ide\..\hxdsp1042\epos/libepos_c.a(_realloc.o)
                                                  C:\Users\Mihtop\Desktop\ECS\ECS\ide\..\hxdsp1042\epos/libepos_c.a(malloc.o)
                                                  C:\Users\Mihtop\Desktop\ECS\ECS\ide\..\hxdsp1042\epos/libepos_c.a(free.o)
__epos_malloc_statistics_helpers                  ./init.o
                                                  C:\Users\Mihtop\Desktop\ECS\ECS\ide\..\hxdsp1042\epos/libepos_c.a(malloc_initialize.o)
                                                  C:\Users\Mihtop\Desktop\ECS\ECS\ide\..\hxdsp1042\epos/libepos_c.a(malloc.o)
                                                  C:\Users\Mihtop\Desktop\ECS\ECS\ide\..\hxdsp1042\epos/libepos_c.a(free.o)
__epos_minimum_stack_size                         ./init.o
__epos_shutdown_executive                         C:\Users\Mihtop\Desktop\ECS\ECS\ide\..\hxdsp1042\epos/libepos_c.a(exinit.o)
__epos_unified_work_area                          ./init.o
                                                  C:\Users\Mihtop\Desktop\ECS\ECS\ide\..\hxdsp1042\epos/libepos_c.a(malloc_initialize.o)
__exit_loop                                       C:\Users\Mihtop\Desktop\ECS\ECS\ide\\..\hxdsp1042\newlib\crt0_c.o
__fabs                                            C:\Users\Mihtop\Desktop\ECS\ECS\ide\..\hxdsp1042\newlib/libm_c.a(sf_fabs.o)
                                                  ./init.o
__fabsf                                           C:\Users\Mihtop\Desktop\ECS\ECS\ide\..\hxdsp1042\newlib/libm_c.a(sf_fabs.o)
__fclose                                          C:\Users\Mihtop\Desktop\ECS\ECS\ide\..\hxdsp1042\newlib/libc_c.a(fclose.o)
                                                  C:\Users\Mihtop\Desktop\ECS\ECS\ide\..\hxdsp1042\newlib/libc_c.a(findfp.o)
__fflush                                          C:\Users\Mihtop\Desktop\ECS\ECS\ide\..\hxdsp1042\newlib/libc_c.a(fflush.o)
__fputwc                                          C:\Users\Mihtop\Desktop\ECS\ECS\ide\..\hxdsp1042\newlib/libc_c.a(fputwc.o)
__free                                            C:\Users\Mihtop\Desktop\ECS\ECS\ide\..\hxdsp1042\epos/libepos_c.a(free.o)
                                                  C:\Users\Mihtop\Desktop\ECS\ECS\ide\..\hxdsp1042\epos/libepos_c.a(malloc_deferred.o)
                                                  C:\Users\Mihtop\Desktop\ECS\ECS\ide\..\hxdsp1042\epos/libepos_c.a(_realloc.o)
                                                  C:\Users\Mihtop\Desktop\ECS\ECS\ide\..\hxdsp1042\epos/libepos_c.a(_free_r.o)
__fuReal                                          ./init.o
__fxImag                                          ./init.o
__fxReal                                          ./init.o
__get_coreid                                      ./get_coreid.o
__getintscr                                       C:\Users\Mihtop\Desktop\ECS\ECS\ide\..\hxdsp1042\epos/libepos_c.a(_intscr.o)
                                                  C:\Users\Mihtop\Desktop\ECS\ECS\ide\..\hxdsp1042\epos/libepos_c.a(intrdsp.o)
__init                                            ./init.o
__init_timer0_int                                 C:\Users\Mihtop\Desktop\ECS\ECS\ide\..\hxdsp1042\epos/libepos_c.a(clock.o)
                                                  C:\Users\Mihtop\Desktop\ECS\ECS\ide\..\hxdsp1042\epos/libepos_c.a(ckinit.o)
__int_div_precision                               C:\Users\Mihtop\Desktop\ECS\ECS\ide\..\hxdsp1042\newlib/libc_c.a(int_div_precision.o)
                                                  C:\Users\Mihtop\Desktop\ECS\ECS\ide\..\hxdsp1042\epos/libepos_c.a(intrdsp.o)
                                                  C:\Users\Mihtop\Desktop\ECS\ECS\ide\..\hxdsp1042\newlib/libc_c.a(mprec.o)
                                                  C:\Users\Mihtop\Desktop\ECS\ECS\ide\..\hxdsp1042\newlib/libc_c.a(fvwrite.o)
                                                  C:\Users\Mihtop\Desktop\ECS\ECS\ide\..\hxdsp1042\newlib/libc_c.a(vfprintf.o)
                                                  ./init.o
__isr_installc_dsp                                C:\Users\Mihtop\Desktop\ECS\ECS\ide\..\hxdsp1042\epos/libepos_c.a(interruptc.o)
                                                  C:\Users\Mihtop\Desktop\ECS\ECS\ide\..\hxdsp1042\epos/libepos_c.a(ckinit.o)
__localeconv                                      C:\Users\Mihtop\Desktop\ECS\ECS\ide\..\hxdsp1042\newlib/libc_c.a(locale.o)
__longjmp                                         C:\Users\Mihtop\Desktop\ECS\ECS\ide\..\hxdsp1042\epos/libepos_c.a(unsupport_newlib.o)
__main                                            ./init.o
                                                  C:\Users\Mihtop\Desktop\ECS\ECS\ide\..\hxdsp1042\epos/libepos_c.a(bootcard.o)
                                                  C:\Users\Mihtop\Desktop\ECS\ECS\ide\\..\hxdsp1042\newlib\crt0_c.o
__malloc                                          C:\Users\Mihtop\Desktop\ECS\ECS\ide\..\hxdsp1042\epos/libepos_c.a(malloc.o)
                                                  C:\Users\Mihtop\Desktop\ECS\ECS\ide\..\hxdsp1042\epos/libepos_c.a(_calloc.o)
                                                  C:\Users\Mihtop\Desktop\ECS\ECS\ide\..\hxdsp1042\epos/libepos_c.a(_realloc.o)
                                                  C:\Users\Mihtop\Desktop\ECS\ECS\ide\..\hxdsp1042\epos/libepos_c.a(_malloc_r.o)
__malloc_deferred_free                            C:\Users\Mihtop\Desktop\ECS\ECS\ide\..\hxdsp1042\epos/libepos_c.a(malloc_deferred.o)
                                                  C:\Users\Mihtop\Desktop\ECS\ECS\ide\..\hxdsp1042\epos/libepos_c.a(free.o)
__malloc_deferred_frees_initialize                C:\Users\Mihtop\Desktop\ECS\ECS\ide\..\hxdsp1042\epos/libepos_c.a(malloc_deferred.o)
                                                  C:\Users\Mihtop\Desktop\ECS\ECS\ide\..\hxdsp1042\epos/libepos_c.a(malloc_initialize.o)
__malloc_deferred_frees_process                   C:\Users\Mihtop\Desktop\ECS\ECS\ide\..\hxdsp1042\epos/libepos_c.a(malloc_deferred.o)
                                                  C:\Users\Mihtop\Desktop\ECS\ECS\ide\..\hxdsp1042\epos/libepos_c.a(malloc.o)
__malloc_is_system_state_OK                       C:\Users\Mihtop\Desktop\ECS\ECS\ide\..\hxdsp1042\epos/libepos_c.a(malloc_deferred.o)
                                                  C:\Users\Mihtop\Desktop\ECS\ECS\ide\..\hxdsp1042\epos/libepos_c.a(malloc.o)
                                                  C:\Users\Mihtop\Desktop\ECS\ECS\ide\..\hxdsp1042\epos/libepos_c.a(free.o)
__memchr                                          C:\Users\Mihtop\Desktop\ECS\ECS\ide\..\hxdsp1042\newlib/libc_c.a(memchr.o)
                                                  C:\Users\Mihtop\Desktop\ECS\ECS\ide\..\hxdsp1042\newlib/libc_c.a(fvwrite.o)
                                                  C:\Users\Mihtop\Desktop\ECS\ECS\ide\..\hxdsp1042\newlib/libc_c.a(vfiprintf.o)
                                                  C:\Users\Mihtop\Desktop\ECS\ECS\ide\..\hxdsp1042\newlib/libc_c.a(vfprintf.o)
__memcpy                                          C:\Users\Mihtop\Desktop\ECS\ECS\ide\..\hxdsp1042\newlib/libc_c.a(memcpy.o)
                                                  C:\Users\Mihtop\Desktop\ECS\ECS\ide\..\hxdsp1042\epos/libepos_c.a(_realloc.o)
                                                  C:\Users\Mihtop\Desktop\ECS\ECS\ide\..\hxdsp1042\epos/libepos_c.a(write.o)
                                                  C:\Users\Mihtop\Desktop\ECS\ECS\ide\..\hxdsp1042\epos/libepos_c.a(read.o)
                                                  C:\Users\Mihtop\Desktop\ECS\ECS\ide\..\hxdsp1042\newlib/libc_c.a(mprec.o)
                                                  C:\Users\Mihtop\Desktop\ECS\ECS\ide\..\hxdsp1042\newlib/libc_c.a(fvwrite.o)
                                                  C:\Users\Mihtop\Desktop\ECS\ECS\ide\..\hxdsp1042\newlib/libc_c.a(dtoa.o)
__memmove                                         C:\Users\Mihtop\Desktop\ECS\ECS\ide\..\hxdsp1042\newlib/libc_c.a(memmove.o)
                                                  C:\Users\Mihtop\Desktop\ECS\ECS\ide\..\hxdsp1042\newlib/libc_c.a(fvwrite.o)
__memset                                          C:\Users\Mihtop\Desktop\ECS\ECS\ide\..\hxdsp1042\newlib/libc_c.a(memset.o)
                                                  C:\Users\Mihtop\Desktop\ECS\ECS\ide\..\hxdsp1042\epos/libepos_c.a(wkspace.o)
                                                  C:\Users\Mihtop\Desktop\ECS\ECS\ide\..\hxdsp1042\epos/libepos_c.a(malloc_initialize.o)
                                                  C:\Users\Mihtop\Desktop\ECS\ECS\ide\..\hxdsp1042\epos/libepos_c.a(_calloc.o)
                                                  C:\Users\Mihtop\Desktop\ECS\ECS\ide\..\hxdsp1042\newlib/libc_c.a(findfp.o)
__outReal                                         ./init.o
__outRealFFT                                      ./init.o
__printf                                          C:\Users\Mihtop\Desktop\ECS\ECS\ide\..\hxdsp1042\newlib/libc_c.a(printf.o)
                                                  ./init.o
__setintscr                                       C:\Users\Mihtop\Desktop\ECS\ECS\ide\..\hxdsp1042\epos/libepos_c.a(_intscr.o)
                                                  C:\Users\Mihtop\Desktop\ECS\ECS\ide\..\hxdsp1042\epos/libepos_c.a(intrdsp.o)
__setjmp                                          C:\Users\Mihtop\Desktop\ECS\ECS\ide\..\hxdsp1042\epos/libepos_c.a(unsupport_newlib.o)
__setlocale                                       C:\Users\Mihtop\Desktop\ECS\ECS\ide\..\hxdsp1042\newlib/libc_c.a(locale.o)
__sin_mx                                          ./init.o
__strcmp                                          C:\Users\Mihtop\Desktop\ECS\ECS\ide\..\hxdsp1042\newlib/libc_c.a(strcmp.o)
                                                  C:\Users\Mihtop\Desktop\ECS\ECS\ide\..\hxdsp1042\newlib/libc_c.a(locale.o)
__strlen                                          C:\Users\Mihtop\Desktop\ECS\ECS\ide\..\hxdsp1042\newlib/libc_c.a(strlen.o)
                                                  C:\Users\Mihtop\Desktop\ECS\ECS\ide\..\hxdsp1042\newlib/libc_c.a(vfiprintf.o)
                                                  C:\Users\Mihtop\Desktop\ECS\ECS\ide\..\hxdsp1042\newlib/libc_c.a(vfprintf.o)
__sysinfo                                         ./init.o
__sysmain                                         C:\Users\Mihtop\Desktop\ECS\ECS\ide\..\hxdsp1042\epos/libepos_c.a(main.o)
                                                  C:\Users\Mihtop\Desktop\ECS\ECS\ide\\..\hxdsp1042\newlib\crt0_c.o
__uint_div_precision                              C:\Users\Mihtop\Desktop\ECS\ECS\ide\..\hxdsp1042\newlib/libc_c.a(uint_div_precision.o)
                                                  C:\Users\Mihtop\Desktop\ECS\ECS\ide\..\hxdsp1042\epos/libepos_c.a(heap_inl.o)
                                                  C:\Users\Mihtop\Desktop\ECS\ECS\ide\..\hxdsp1042\epos/libepos_c.a(ckinit.o)
                                                  C:\Users\Mihtop\Desktop\ECS\ECS\ide\..\hxdsp1042\newlib/libc_c.a(dtoa.o)
                                                  C:\Users\Mihtop\Desktop\ECS\ECS\ide\..\hxdsp1042\newlib/libc_c.a(vfiprintf.o)
                                                  C:\Users\Mihtop\Desktop\ECS\ECS\ide\..\hxdsp1042\newlib/libc_c.a(vfprintf.o)
__vfiprintf                                       C:\Users\Mihtop\Desktop\ECS\ECS\ide\..\hxdsp1042\newlib/libc_c.a(vfiprintf.o)
__vfprintf                                        C:\Users\Mihtop\Desktop\ECS\ECS\ide\..\hxdsp1042\newlib/libc_c.a(vfprintf.o)
__wcrtomb                                         C:\Users\Mihtop\Desktop\ECS\ECS\ide\..\hxdsp1042\newlib/libc_c.a(wcrtomb.o)
_conn_sys_isr                                     C:\Users\Mihtop\Desktop\ECS\ECS\ide\..\hxdsp1042\epos/libepos_c.a(start_interrupt.o)
                                                  C:\Users\Mihtop\Desktop\ECS\ECS\ide\..\hxdsp1042\epos/libepos_c.a(interruptc.o)
_current_stack_base                               C:\Users\Mihtop\Desktop\ECS\ECS\ide\\..\hxdsp1042\newlib\crt0_c.o
                                                  C:\Users\Mihtop\Desktop\ECS\ECS\ide\..\hxdsp1042\epos/libepos_c.a(_interruptc.o)
                                                  C:\Users\Mihtop\Desktop\ECS\ECS\ide\..\hxdsp1042\epos/libepos_c.a(cpu_asm.o)
_entry_point                                      C:\Users\Mihtop\Desktop\ECS\ECS\ide\\..\hxdsp1042\newlib\crt0_c.o
_interruptc_process                               C:\Users\Mihtop\Desktop\ECS\ECS\ide\..\hxdsp1042\epos/libepos_c.a(_interruptc.o)
                                                  C:\Users\Mihtop\Desktop\ECS\ECS\ide\..\hxdsp1042\epos/libepos_c.a(interruptc.o)
